(dp1
S'birthday'
p2
(lp3
S'Tue, 6 Feb 2018 18:58:17 +0000'
p4
aS'Mon, 22 Jan 2018 10:05:36 +0000'
p5
aS'Mon, 15 Jan 2018 11:01:32 -0500'
p6
aS'Wed, 8 Nov 2017 22:32:08 +0000'
p7
aS'Tue, 17 Oct 2017 19:46:34 +0000 (UTC)'
p8
aS'Mon, 16 Oct 2017 19:26:10 +0000'
p9
aS'Mon, 2 Oct 2017 20:50:55 +0000'
p10
aS'Thu, 14 Sep 2017 22:03:21 +0000'
p11
aS'Thu, 7 Sep 2017 18:30:50 +0000'
p12
aS'Tue, 29 Aug 2017 05:53:11 GMT'
p13
aS'Sat, 19 Aug 2017 19:28:28 +0000'
p14
aS'Wed, 9 Aug 2017 22:02:43 +0000'
p15
aS'Mon, 31 Jul 2017 11:01:22 -0400'
p16
aS'Thu, 29 Jun 2017 16:26:39 +0000'
p17
aS'Tue, 27 Jun 2017 13:25:02 +0000 (UTC)'
p18
aS'Sat, 3 Sep 2016 08:09:47 -0700'
p19
aS'Sat, 3 Sep 2016 06:07:34 -0700 (PDT)'
p20
aS'Wed, 31 Aug 2016 14:10:11 +0000'
p21
aS'Mon, 29 Aug 2016 06:07:19 -0700 (PDT)'
p22
aS'Sun, 28 Aug 2016 06:07:33 -0700 (PDT)'
p23
aS'Sat, 20 Aug 2016 22:47:47 +0000'
p24
aS'Sun, 17 Jul 2016 06:06:47 -0700 (PDT)'
p25
aS'Tue, 12 Jul 2016 06:07:50 -0700 (PDT)'
p26
aS'Sun, 5 Jun 2016 06:07:16 -0700 (PDT)'
p27
aS'Fri, 3 Jun 2016 06:08:09 -0700 (PDT)'
p28
aS'Tue, 31 May 2016 06:07:40 -0700 (PDT)'
p29
aS'Mon, 30 May 2016 06:07:20 -0700 (PDT)'
p30
aS'Tue, 24 May 2016 21:48:14 +0000'
p31
aS'Sun, 22 May 2016 09:06:51 -0000'
p32
aS'Wed, 18 May 2016 06:08:26 -0700 (PDT)'
p33
aS'Thu, 12 May 2016 06:07:59 -0700 (PDT)'
p34
aS'Wed, 4 May 2016 06:08:41 -0700 (PDT)'
p35
aS'Tue, 03 May 2016 06:03:29 -0600'
p36
aS'Tue, 19 Apr 2016 06:07:51 -0700 (PDT)'
p37
aS'Sat, 9 Apr 2016 06:07:27 -0700 (PDT)'
p38
aS'Sat, 2 Apr 2016 06:07:18 -0700 (PDT)'
p39
aS'Sun, 27 Mar 2016 10:21:21 +0000'
p40
aS'Mon, 14 Mar 2016 06:07:18 -0700 (PDT)'
p41
aS'Fri, 26 Feb 2016 06:07:30 -0800 (PST)'
p42
aS'Mon, 22 Feb 2016 06:07:19 -0800 (PST)'
p43
aS'Mon, 8 Feb 2016 06:07:27 -0800 (PST)'
p44
aS'Wed, 3 Feb 2016 06:07:55 -0800 (PST)'
p45
aS'Sun, 31 Jan 2016 06:06:49 -0800 (PST)'
p46
aS'Fri, 13 Nov 2015 13:21:57 -0500'
p47
aS'Wed, 23 Sep 2015 06:05:28 -0700 (PDT)'
p48
aS'Sat, 12 Sep 2015 06:05:17 -0700 (PDT)'
p49
aS'Fri, 03 Jul 2015 20:40:17 +0000'
p50
aS'Thu, 21 May 2015 11:32:13 -0000'
p51
aS'Thu, 7 May 2015 21:17:11 +0000'
p52
aS'Sun, 08 Feb 2015 18:49:28 +0000'
p53
aS'Tue, 9 Sep 2014 00:41:50 +0000 (UTC)'
p54
aS'Wed, 11 Jun 2014 00:24:54 +0000 (UTC)'
p55
aS'Fri, 23 May 2014 16:50:29 -0700'
p56
aS'Fri, 23 May 2014 09:02:57 -0700'
p57
aS'Fri, 23 May 2014 06:35:53 -0700'
p58
aS'Wed, 27 Nov 2013 15:42:50 +0000'
p59
as.