(dp1
S'09/24/2017'
p2
(lp3
V15eb5e7b5857e29a
p4
aV15eb20aded11e9c0
p5
aV15eb20adddc5605c
p6
aV15eb1cec5126e7fa
p7
asS'08/11/2017'
p8
(lp9
V15dd3b03c2fb591d
p10
aV15dd361dd5669df4
p11
aV15dd260856e098e7
p12
aV15dd233e69058fed
p13
aV15dd1f37070251a4
p14
aV15dcf7310b3578e0
p15
aV15dcf730e34d5e27
p16
asS'03/30/2017'
p17
(lp18
V15b20ae3486071a6
p19
aV15b1c835b91b4684
p20
asS'02/25/2017'
p21
(lp22
V15a770e549c8bc46
p23
aV15a770d9028488e2
p24
aV15a7708718441f7f
p25
aV15a76edf48e3fce8
p26
aV15a76cc2d5682ff6
p27
aV15a72d31eca8a8be
p28
aV15a729161d476eba
p29
asS'10/27/2017'
p30
(lp31
V15f5fee5b0c77241
p32
aV15f5ebc4ad01195c
p33
aV15f5bfcc1e707586
p34
aV15f5bfcbf0b5590e
p35
aV15f5b6c6fd1cd321
p36
aV15f5b6bd45b48b81
p37
aV15f5b625c056ba61
p38
aV15f5b41f50a40eae
p39
asS'09/27/2017'
p40
(lp41
V15ec5863c0c203da
p42
aV15ec17df26011d99
p43
aV15ec17df0061a156
p44
aV15ec16407778dc6e
p45
aV15ec0ef99990b44d
p46
aV15ec0e6206efe115
p47
asS'10/04/2017'
p48
(lp49
V15ee5d6122ae86ca
p50
aV15ee58a852097d92
p51
aV15ee58a788aaa055
p52
asS'05/13/2017'
p53
(lp54
V15c036b13d4d268e
p55
aV15bff9d91a65eb94
p56
asS'01/18/2018'
p57
(lp58
V1610aaf65fc9eb97
p59
aV16107a3b2663404d
p60
aV16107a37d52a9b32
p61
aV161075d23ae17b4a
p62
asS'02/26/2017'
p63
(lp64
sS'10/31/2017'
p65
(lp66
V15f748a74af5f320
p67
aV15f745cd779fc17f
p68
aV15f745c3a6f63b3c
p69
aV15f73e79d3187745
p70
aV15f73e71a8ce4be8
p71
aV15f73e478b1839c0
p72
aV15f71a54c95cde2a
p73
aV15f70962d5c6c2db
p74
aV15f70962c79df437
p75
aV15f70181c2ba0db9
p76
asS'07/15/2017'
p77
(lp78
V15d48916a750af4d
p79
aV15d486cf4cb8d561
p80
aV15d44676bfba1ef6
p81
aV15d4467604f659fd
p82
aV15d43a16fce8deb1
p83
asS'03/25/2017'
p84
(lp85
V15b06a3810802180
p86
aV15b0666e063840a4
p87
aV15b0655fac2b225c
p88
aV15b03546199dfb6e
p89
aV15b0350e5e14a37e
p90
aV15b033464cf051d8
p91
asS'08/05/2017'
p92
(lp93
V15db08d206562dc8
p94
aV15db08cf33b335b4
p95
asS'12/29/2017'
p96
(lp97
V160a489f888c2bee
p98
aV160a46a14b26737b
p99
aV160a1bf084be7f82
p100
aV160a1458de8b2ace
p101
aV160a0a44e7668cfb
p102
aV160a0a44a1d6ee45
p103
asS'02/09/2018'
p104
(lp105
V1617c2a7620f6c6c
p106
aV1617bf4f6f8cb44c
p107
aV1617adcad50ad27a
p108
aV1617a764841db92f
p109
aV161786ee65fcac6d
p110
asS'01/13/2018'
p111
(lp112
V160f1bb09941f1f0
p113
aV160f1b63eb12a531
p114
aV160f101e634c2bc0
p115
aV160f0e67e065e33a
p116
aV160f0d4b419deb35
p117
aV160f04ff43cc586d
p118
aV160f032a32a5a43f
p119
aV160ede3ac5af83a0
p120
aV160ede3abd115c52
p121
aV160ed7dc05ba4b33
p122
asS'05/24/2017'
p123
(lp124
V15c3ba856185e893
p125
aV15c3928bfa7fc4fc
p126
aV15c3901348a47677
p127
aV15c3887a15fa68e8
p128
aV15c3880b198e9013
p129
aV15c385c325c4a05b
p130
aV15c385a420d18f70
p131
asS'12/02/2017'
p132
(lp133
V1601838c28103197
p134
aV1601663ad581e064
p135
aV160165f7667e2750
p136
asS'09/10/2017'
p137
(lp138
V15e6dde135f1c67e
p139
aV15e6ddd5fb7b592b
p140
aV15e6bff1e916c991
p141
aV15e6bfd6e9bc64e2
p142
aV15e6ac7d13b7fc65
p143
aV15e69f1db1db6a26
p144
aV15e69f1d5b3571ae
p145
aV15e699dae89892c5
p146
aV15e699955f614934
p147
asS'07/05/2017'
p148
(lp149
V15d150d82218e803
p150
aV15d149884a3d45f4
p151
aV15d14724fdd531a1
p152
aV15d14707784e3a27
p153
aV15d146f591c1d154
p154
aV15d144e3262d5cb4
p155
aV15d142011689d541
p156
aV15d141bd59828cfe
p157
aV15d141a82180062a
p158
aV15d14032156e6dfc
p159
aV15d1402273e59f0a
p160
aV15d13fc789827ef1
p161
aV15d13f2d472e8c08
p162
aV15d13e8416547def
p163
aV15d13ce4075cb7f8
p164
aV15d13cae50749a62
p165
aV15d13a19d403c3a4
p166
aV15d134a49bb2ec94
p167
aV15d133c8bf3b5562
p168
aV15d114265ed3d36e
p169
aV15d11226b7a8cb3d
p170
aV15d10e7d79129829
p171
aV15d10e7beeefa94b
p172
aV15d101dcad149e19
p173
asS'08/10/2017'
p174
(lp175
V15dce10533a8f5c3
p176
aV15dcdf78779f5d1e
p177
aV15dcdc460208c3a5
p178
aV15dcd58159ca8a46
p179
aV15dcd415559c935c
p180
aV15dcc74845951066
p181
aV15dcbfce87b307d5
p182
aV15dcbf92bfc6b18f
p183
aV15dca4cb1317f70f
p184
asS'02/07/2018'
p185
(lp186
V1617286a11fc177e
p187
aV1617231ae19236f3
p188
aV161722c462552ea5
p189
aV161716e2090d89c0
p190
aV161716299b355862
p191
aV161715b05ff0fb3e
p192
aV1617159cc1f1c06b
p193
aV161715195b779ef3
p194
aV1617150d88ce51ed
p195
aV16170d04873f544b
p196
aV1616fb6a537b5226
p197
aV1616ef26dce4d69c
p198
aV1616debb30436f6b
p199
aV1616dafec02b4b9f
p200
asS'12/01/2017'
p201
(lp202
V160115fc15b69e2e
p203
aV160115b2350f5ba6
p204
asS'02/06/2018'
p205
(lp206
V1616cbeac8b3986e
p207
aV1616c6dd7728baa1
p208
aV1616c68918ee016a
p209
aV1616c39cd97ac96b
p210
aV1616ab8bcba5a00b
p211
aV1616998474db8ade
p212
aV161689fafa17487b
p213
aV1616899e64619063
p214
aV16168917ba036df2
p215
asS'01/14/2018'
p216
(lp217
V160f69011f315b0f
p218
aV160f3e41fb7fff39
p219
aV160f389d75c17db1
p220
aV160f35df2d62829c
p221
aV160f30a1038aea56
p222
aV160f30a0bae965e5
p223
asS'05/21/2017'
p224
(lp225
V15c2bd3ff3c2317e
p226
aV15c2aafe48884eed
p227
asS'10/29/2017'
p228
(lp229
V15f6a5d4bbf1a0ce
p230
aV15f6a1b45d188305
p231
aV15f696b7ae5b632f
p232
aV15f696afd65324ee
p233
aV15f69641bb226bf5
p234
aV15f66f48aba87804
p235
aV15f66f3e01546190
p236
aV15f66f3464eb4d08
p237
aV15f66f2f09bfef85
p238
aV15f66e9b6f0378b0
p239
aV15f664978f4dc33a
p240
aV15f6649773b85101
p241
asS'01/31/2018'
p242
(lp243
V1614e276125d056d
p244
aV1614df73449f4668
p245
aV1614df3df8281cbe
p246
aV1614d948987cd31e
p247
aV1614d287113c3f19
p248
aV1614d1e9ab60e2cc
p249
aV1614c02f2a8dbd98
p250
aV1614a04499bb1859
p251
asS'08/28/2017'
p252
(lp253
V15e2b1b1afcdd438
p254
aV15e29cbe11087fe4
p255
aV15e29c5a5fe3f270
p256
aV15e2969fd1a5de16
p257
aV15e291e60e2ea3ad
p258
aV15e2919407b53a59
p259
aV15e285d39fb63f63
p260
aV15e285a0d271bd66
p261
aV15e2755100c4af17
p262
aV15e27219952599e9
p263
aV15e27215d08598fa
p264
aV15e2706009ebe92d
p265
aV15e26ff395f07d80
p266
aV15e26ff280194a3f
p267
aV15e26acd44d86fe1
p268
aV15e2634d8bd9af95
p269
asS'12/24/2017'
p270
(lp271
V160898cdeedbd562
p272
aV160879ca32825699
p273
asS'05/22/2017'
p274
(lp275
V15c2e7120c0b3386
p276
asS'01/16/2018'
p277
(lp278
V16101416b81d87a5
p279
aV1610014d33b9c960
p280
aV160ff34480eacb53
p281
aV160fe964485003b3
p282
aV160fe08b93de5149
p283
aV160fd5786b47fd34
p284
aV160fd56c6c934174
p285
asS'02/23/2017'
p286
(lp287
V15a6ca7352698066
p288
aV15a68567c7cdab3c
p289
asS'12/25/2017'
p290
(lp291
sS'07/06/2017'
p292
(lp293
V15d1a5043b60f705
p294
aV15d1a3ebb9657eb3
p295
aV15d1a3097e374afb
p296
aV15d19cd0b26dec32
p297
aV15d19a3d6ced5347
p298
aV15d1996152850e53
p299
aV15d198ef43b40650
p300
aV15d197c8df94c2bd
p301
aV15d19448cb3da0dc
p302
aV15d18b2e5d985b3e
p303
aV15d18b2c21b262a4
p304
aV15d18b1b7b720fc1
p305
aV15d18925c18dce29
p306
aV15d1890e395157d5
p307
aV15d188bce575c23f
p308
aV15d188b826dc812f
p309
aV15d1871fd2691753
p310
aV15d186f10e601bd8
p311
aV15d186b59f22853e
p312
aV15d186a2b8cf9cfc
p313
aV15d1868701a7fdbd
p314
aV15d1867e6aec674c
p315
aV15d18660c17194d4
p316
aV15d1864fe3c15036
p317
aV15d185d01aa7c940
p318
aV15d182d7dcb573d0
p319
aV15d1684dd683a1d8
p320
aV15d160e454790363
p321
aV15d160e1f91975bf
p322
aV15d15467e78e4012
p323
asS'06/29/2017'
p324
(lp325
V15cf629a78645b43
p326
aV15cf4ad5c5122729
p327
aV15cf4a8f7027ce6f
p328
aV15cf4a35ca2f1519
p329
aV15cf49e5fcf4dc45
p330
aV15cf49b1fe0c093f
p331
aV15cf497b0dc8e41d
p332
aV15cf4936d05f8f8d
p333
aV15cf49021519e4d0
p334
aV15cf48eae53a6902
p335
aV15cf4867440656ea
p336
aV15cf426274e65d19
p337
aV15cf254c82c9e9a8
p338
aV15cf1bea5eced51d
p339
aV15cf1ac9c075edc0
p340
aV15cf1aaa37bf13ec
p341
aV15cf1a6a7e7da8ff
p342
asS'07/02/2017'
p343
(lp344
V15d059634e0a7d51
p345
aV15d0563bacf48cb5
p346
aV15d054fdc00b3427
p347
aV15d054e0a11cb2e2
p348
aV15d0549c08065ca0
p349
aV15d054702c5e8540
p350
aV15d0533407b953e8
p351
aV15d0533012343bb7
p352
aV15d052c30402399c
p353
aV15d051ba438fde32
p354
aV15d051b7af066524
p355
aV15d051998458d3ba
p356
aV15d051947d9b4b43
p357
aV15d050d5672ddbe0
p358
aV15d050a9860fb97e
p359
aV15d050650fec0d59
p360
aV15d04f502ac2236f
p361
aV15d0410f0834f445
p362
aV15d040c4db03f938
p363
aV15d0407c4720178f
p364
aV15d03d88924bbb5b
p365
aV15d03d56e1af3589
p366
aV15d03d4a24c7e1bc
p367
aV15d03d328d80807a
p368
aV15d03d2fc532e7ca
p369
aV15d03cfee15ae8c7
p370
aV15d03c9e9edc59ba
p371
aV15d02ee60be6965a
p372
aV15d0174b3760a431
p373
aV15d0174b2e8378d4
p374
asS'11/01/2017'
p375
(lp376
V15f791377a4dbf67
p377
aV15f7889c71a3da1f
p378
aV15f786d45b98e7f1
p379
aV15f76d4f8177d175
p380
aV15f75bc8c772c105
p381
aV15f75bc88d2fa4f5
p382
asS'10/10/2017'
p383
(lp384
V15f07e35cd2f5c3c
p385
aV15f077ce89144ff2
p386
aV15f0765edcaeefed
p387
aV15f0470a13b6dd58
p388
aV15f04709d57b8f8c
p389
aV15f0410e05c4852c
p390
aV15f0410cbe3ec15f
p391
aV15f03c21372399de
p392
asS'04/24/2017'
p393
(lp394
sS'04/08/2017'
p395
(lp396
V15b4faeb8650cb4a
p397
aV15b4e6f3ddb6821b
p398
aV15b4af05b72ca9d9
p399
asS'03/07/2017'
p400
(lp401
V15aab246c441c9bf
p402
aV15aa85655c7cd799
p403
aV15aa84935e5aedf6
p404
aV15aa652667792d56
p405
asS'02/14/2018'
p406
(lp407
V161968d4b5bb113a
p408
asS'06/08/2017'
p409
(lp410
V15c897f4acd72a53
p411
aV15c88a44b480ac66
p412
aV15c886af40ad7afa
p413
aV15c883d8b2aad8e9
p414
aV15c8824fffe098c2
p415
aV15c87425a8f5030f
p416
aV15c85c44daf7832b
p417
aV15c85951f8b2bcdb
p418
aV15c857576385b243
p419
aV15c851e5e62faec4
p420
asS'07/01/2017'
p421
(lp422
V15cff16e5cd3120c
p423
aV15cfef90aeaca201
p424
aV15cfe1a01522c6b0
p425
aV15cfdefd80a03eac
p426
aV15cfdefb918592dd
p427
aV15cfdd959e714619
p428
aV15cfcab97246c2ff
p429
asS'12/04/2017'
p430
(lp431
V16023ec346e4c0c2
p432
aV16023890550a5619
p433
aV160235589122a6e4
p434
aV160223e8e11df07a
p435
aV160222830b430cfd
p436
aV16022192659dc37a
p437
asS'09/02/2017'
p438
(lp439
V15e4408d68df0693
p440
aV15e43c49fb681524
p441
aV15e43c18a7b4357f
p442
aV15e40befda78b538
p443
aV15e40bef5841917b
p444
aV15e40519e98feb51
p445
aV15e405172b87e90f
p446
aV15e404ed72ca9b28
p447
aV15e404de3197697d
p448
aV15e402861d7d4dfb
p449
aV15e3ff32f6a1ccb8
p450
asS'06/25/2017'
p451
(lp452
V15ce07a0ab7e81ea
p453
aV15ce0734a248e156
p454
aV15ce04395085ca68
p455
aV15ce018d75cd67a7
p456
aV15cdfa2bb5bbb0c3
p457
aV15cdf3aa5e8947c3
p458
aV15cde26abaf7e909
p459
aV15cde26684acbf29
p460
aV15cde2624c32e503
p461
aV15cde25e4d763ad5
p462
aV15cde259b2de369d
p463
aV15cde25634cd45cc
p464
aV15cde251bca26108
p465
aV15cde24d6b2b2fbd
p466
aV15cdccac104cf50d
p467
aV15cdcca5d6ab2c7b
p468
aV15cdcc9e200bfbf1
p469
aV15cdcc989ebfca8b
p470
aV15cdcc8e42e9a34c
p471
aV15cdcc8547cc8e86
p472
aV15cdcc7a97b56afb
p473
aV15cdcc7040436778
p474
asS'06/03/2017'
p475
(lp476
V15c6ef0e07b474c4
p477
aV15c6cdc1da14b6fc
p478
aV15c6cce21f3a0cbd
p479
aV15c6b797f4a5e159
p480
aV15c6b5a00e0ae259
p481
aV15c6b4fc6623f4d3
p482
aV15c6b4aec1ae5525
p483
aV15c6b49e9c976044
p484
aV15c6b412c610ac27
p485
asS'07/03/2017'
p486
(lp487
V15d0ad48088b822a
p488
aV15d0acd08750d8cd
p489
aV15d0acbafceb28cd
p490
aV15d0ac2b4efe840e
p491
aV15d0ac0f32f7fbff
p492
aV15d0abc393ddde6f
p493
aV15d0a765ea2565e7
p494
aV15d0a46f9066b727
p495
aV15d0a4546059948c
p496
aV15d0a40a05402448
p497
aV15d0a33ff55dde26
p498
aV15d0a2dabb07ff55
p499
aV15d09cd0aa08689f
p500
aV15d09cb2fcd0be1a
p501
aV15d08e981fd9536f
p502
aV15d08db57b72bc5c
p503
aV15d08d094b687534
p504
aV15d0887d99e9381d
p505
aV15d0729c35625bbf
p506
aV15d0725556b204e6
p507
aV15d069d356a713bf
p508
aV15d069b180582a95
p509
aV15d069b094f62469
p510
asS'12/15/2017'
p511
(lp512
sS'09/04/2017'
p513
(lp514
V15e4f3733560eee3
p515
aV15e4f34e56653226
p516
aV15e4f348a7c64fe0
p517
aV15e4ebf6a7e5cb7a
p518
aV15e4e585119bc9f1
p519
aV15e4d6a6d5769355
p520
aV15e4d520233e2bb6
p521
aV15e4b6ad3859b83b
p522
aV15e4b6a682964b8b
p523
aV15e4b0be54f0f7e0
p524
aV15e4b0bb2ebc945d
p525
asS'06/20/2017'
p526
(lp527
V15cc799b118ba7ab
p528
aV15cc780c48a594d2
p529
aV15cc775c701833db
p530
aV15cc7487c78a2776
p531
aV15cc743a302aa7a4
p532
aV15cc73f116fad004
p533
aV15cc73a091764990
p534
aV15cc7320c8b31cd8
p535
aV15cc72cd43c28dec
p536
aV15cc71dfda498cce
p537
aV15cc70c45f73b4b1
p538
aV15cc6f92789cbe0e
p539
aV15cc688767badc58
p540
aV15cc665d8b408b70
p541
aV15cc61111bd69095
p542
aV15cc61006aec4010
p543
aV15cc60ba420cb63d
p544
aV15cc606b8d98fbd7
p545
aV15cc604736526005
p546
aV15cc6009c8367e69
p547
aV15cc5f565c668162
p548
aV15cc597ba2bee851
p549
aV15cc5369165a13a4
p550
aV15cc4c78a1a5ebe9
p551
aV15cc30300d8be45b
p552
asS'10/05/2017'
p553
(lp554
V15eeebda00f5ca4f
p555
aV15eed50a06c4937b
p556
aV15eed4ff8a7f6126
p557
aV15eeab109cf58f1f
p558
aV15eeab0dba1834c5
p559
aV15eea256bb017463
p560
asS'03/27/2017'
p561
(lp562
V15b11de0fce69562
p563
aV15b10b8dd1a97b13
p564
aV15b1022ae4b705af
p565
asS'03/04/2017'
p566
(lp567
sS'06/04/2017'
p568
(lp569
sS'09/06/2017'
p570
(lp571
V15e55eb1f74084cc
p572
aV15e55586a22d635a
p573
aV15e5558695918d76
p574
asS'04/14/2017'
p575
(lp576
V15b6ec31411492aa
p577
asS'10/02/2017'
p578
(lp579
V15ede9e1175a3496
p580
aV15ede21ccfa8b593
p581
aV15eddb3367f0a4bd
p582
aV15eddb165a47443a
p583
aV15edd7cec5ee45c6
p584
aV15edd74bf02666d1
p585
aV15edd60aa5fa98ca
p586
aV15edb3dc0e3c906e
p587
aV15edb3dbcbfdf374
p588
asS'05/12/2017'
p589
(lp590
V15bfe2ca130afcdb
p591
aV15bfdb85e241660a
p592
aV15bfcfaea3d0942c
p593
aV15bfac58a539be1e
p594
aV15bfa3f3717eccec
p595
asS'01/29/2018'
p596
(lp597
V16143c93be45251a
p598
aV16140bface62a8de
p599
asS'06/16/2017'
p600
(lp601
V15cb2a59bf4b0390
p602
aV15cb295c62460fbc
p603
aV15cb2754cb4102a6
p604
aV15cb17d8bb73ad51
p605
aV15cafe6b208a6d37
p606
asS'09/07/2017'
p607
(lp608
V15e5cd07ec327246
p609
aV15e5ca6277e1d0a1
p610
aV15e5af0c4ef4425d
p611
aV15e5ad3b56378884
p612
aV15e5a7ec4394e8e8
p613
aV15e5a7ec31041dc8
p614
asS'11/10/2017'
p615
(lp616
V15fa44cc03f3b8af
p617
aV15fa44cb8497616b
p618
asS'10/09/2017'
p619
(lp620
V15f02db043927010
p621
aV15f0228b1d20d3c1
p622
aV15f0224b4c61b93b
p623
aV15f0220e0fb5b243
p624
aV15f021f834211e27
p625
aV15f0213f00659842
p626
aV15f0212bfc2beb24
p627
aV15f020ea5579073e
p628
aV15f0203ffa17710e
p629
aV15f0200d0928e358
p630
aV15f01fa49c514559
p631
aV15f01f62e4636bb1
p632
aV15f01f363fb11e7b
p633
aV15f01edb06084cf4
p634
aV15f01e7f2224dee5
p635
aV15f01e21efc1f91f
p636
aV15f015887f1aab22
p637
aV15f012124e1166a5
p638
aV15eff4a4612cf9bf
p639
aV15eff4a40bcaeb44
p640
aV15eff00647f9c978
p641
asS'10/01/2017'
p642
(lp643
V15ed8d3784d8ed5e
p644
aV15ed6fce0cae95d6
p645
aV15ed61767ad4597f
p646
aV15ed617678b879c3
p647
aV15ed5a88806dcf9e
p648
aV15ed54065db47966
p649
asS'01/02/2018'
p650
(lp651
V160b8faec682ee70
p652
aV160b8b6559552efe
p653
aV160b53db9f34962c
p654
aV160b53db4be6eeff
p655
aV160b5248a1380801
p656
asS'01/01/2018'
p657
(lp658
V160b390d1c164480
p659
aV160b38feadfac015
p660
aV160b1c020d20e847
p661
aV160b1abf784d2bb3
p662
aV160b0175f03a4a1d
p663
aV160b0175e7b70b8d
p664
aV160af2198a2bbf84
p665
asS'11/13/2017'
p666
(lp667
V15fb68def4e5d930
p668
aV15fb4257b3bb269b
p669
aV15fb40a6987c9960
p670
aV15fb3f8ff5fcaa8f
p671
aV15fb3bfcbad909b0
p672
aV15fb3bfcae628297
p673
asS'11/02/2017'
p674
(lp675
V15f7f14cc702b691
p676
aV15f7f08b8c571d50
p677
aV15f7ee9893bf66f7
p678
aV15f7ee8ed51548c3
p679
aV15f7ee1e297c7567
p680
aV15f7ebae03a28be9
p681
aV15f7eb8e5a444366
p682
aV15f7b190dc57b76c
p683
aV15f7b037c9219c41
p684
aV15f7ae2f407f18be
p685
aV15f7ae2e3464c1d5
p686
asS'08/01/2017'
p687
(lp688
V15da02a614213ac3
p689
aV15da0299adcd489c
p690
aV15da01f5d206f218
p691
aV15da0097fc4bc8cf
p692
aV15da008bf81cf41c
p693
aV15da003c0a0a541a
p694
aV15d9f59f9bc4eaba
p695
aV15d9f3a3da7bbb0e
p696
aV15d9f37ef72fc66c
p697
aV15d9ef4dd939e437
p698
aV15d9ee41d5282357
p699
aV15d9e6d326ef76e7
p700
aV15d9e2d0239ad78a
p701
aV15d9e12cb5a974f3
p702
aV15d9cb66b4c1c2b3
p703
aV15d9c805c5025579
p704
aV15d9c7d71d91afad
p705
aV15d9bf479e9d5ce3
p706
aV15d9bf37778f8b87
p707
aV15d9b2a0abd9f850
p708
asS'10/15/2017'
p709
(lp710
V15f21af25c605a5e
p711
aV15f1e306d53bb9f1
p712
aV15f1e306c0e8fb9d
p713
asS'05/29/2017'
p714
(lp715
V15c564c91969a669
p716
aV15c562ee4e873d98
p717
aV15c548924c37f21c
p718
aV15c5300cf65e7a26
p719
aV15c53009393f947f
p720
aV15c52dc1f4935555
p721
aV15c52dc1cc3ca26c
p722
aV15c52044abd15ac1
p723
asS'04/25/2017'
p724
(lp725
V15ba6933ddee8542
p726
aV15ba5c3896b91e25
p727
aV15ba5ada4f87cffd
p728
asS'03/29/2017'
p729
(lp730
V15b1baeaf8e31fbd
p731
aV15b1bae02358aa55
p732
aV15b1b75902e641be
p733
aV15b1a93ecd5cbc00
p734
aV15b1a773b81d7e5d
p735
aV15b18d1bca00ffa3
p736
asS'07/21/2017'
p737
(lp738
V15d634d8e2ff964e
p739
aV15d634d7e2d816ef
p740
aV15d631e0bb312eb8
p741
asS'11/18/2017'
p742
(lp743
V15fcd7f9b907332d
p744
aV15fcd7f9a5fdaedc
p745
asS'06/24/2017'
p746
(lp747
V15cd7f18e54612fe
p748
aV15cd7d48cc776840
p749
aV15cd78fabf1281f4
p750
aV15cd78f368a9ebf3
p751
aV15cd78c0489926ef
p752
aV15cd78941e9791e2
p753
aV15cd787c1fedeb95
p754
aV15cd785157feecaf
p755
aV15cd7838b36e27ed
p756
aV15cd782d409b3b4d
p757
aV15cd773a7b98823c
p758
asS'06/15/2017'
p759
(lp760
V15cad4abf10d0437
p761
aV15cad49a6899409a
p762
aV15cac904c5222802
p763
aV15cac2d892ae97fa
p764
aV15caa47cb35da954
p765
aV15caa451d49c0f93
p766
aV15caa40e76616db1
p767
aV15caa3fda68d9d93
p768
aV15caa3d6b59add35
p769
aV15caa3c5230f021a
p770
aV15caa2dcb325064f
p771
aV15caa1cad0978fd9
p772
aV15caa0a19b985dd2
p773
asS'10/16/2017'
p774
(lp775
V15f26412b2648315
p776
aV15f244355d947d61
p777
aV15f243950147c971
p778
aV15f2434c7b35598f
p779
aV15f2356c9304fb48
p780
aV15f2356c6396f711
p781
asS'01/25/2018'
p782
(lp783
V1612f42d5bd665b9
p784
aV1612ed527d94888b
p785
aV1612ed02b03d088b
p786
aV1612ec732b08342f
p787
aV1612e876a793f905
p788
aV1612c71d5a1333a7
p789
aV1612c4c61790bc40
p790
aV1612c4c009e90a58
p791
aV1612c458b1c9479f
p792
aV1612c450c4489288
p793
aV1612c4406b9462aa
p794
aV1612c378fe537f8e
p795
aV1612bb28f26ebf8c
p796
aV1612aa450f08ac58
p797
asS'02/01/2018'
p798
(lp799
V1615396d234a1b07
p800
aV1615391d1e76b657
p801
aV161538efebb9b2b7
p802
aV16153830d9d6dba8
p803
aV161530bea2a3004a
p804
aV161529277dafa8e8
p805
aV161528d03dbfa990
p806
aV161502d7ede9a55f
p807
aV1614eab44d9c714a
p808
asS'03/10/2017'
p809
(lp810
sS'07/18/2017'
p811
(lp812
V15d54ade000c943c
p813
aV15d54809f2b33083
p814
aV15d53da7fd52b6f1
p815
aV15d53da668132201
p816
aV15d53bbd26ad4ef3
p817
aV15d53b89cb6fb9b0
p818
asS'10/21/2017'
p819
(lp820
V15f3d16998267656
p821
aV15f3d1692d0ce81c
p822
asS'11/04/2017'
p823
(lp824
V15f895b93c873348
p825
aV15f89559dc7f94ec
p826
aV15f88f32b2e5d59b
p827
aV15f886a3af641268
p828
aV15f870ac9b7bcaae
p829
aV15f862f0be86f07b
p830
aV15f852fa2468ac0c
p831
aV15f852f9dccb12d5
p832
asS'06/27/2017'
p833
(lp834
V15cebaafe537a81f
p835
aV15ceb9fa04d717e5
p836
aV15ceb99204450ce1
p837
aV15ceb9431ad8bc25
p838
aV15ceb90780d740e1
p839
aV15ceb7f6da24b714
p840
aV15ceb7b67415193b
p841
aV15ceb703687e4c69
p842
aV15ceb59656b31941
p843
aV15ceb56619a0d09c
p844
aV15ceb2cc5dbde1f9
p845
aV15ceb1f25427b00b
p846
aV15ceae240ae0da3c
p847
aV15ce9283e9565e38
p848
aV15ce85e9161011c0
p849
aV15ce81c05f2a1a47
p850
aV15ce74305c9e5c75
p851
aV15ce73d28f22f650
p852
aV15ce71972ba1d337
p853
aV15ce6e583832f29b
p854
asS'04/26/2017'
p855
(lp856
sS'06/19/2017'
p857
(lp858
V15cc2863f4dfaed6
p859
aV15cc2671f260c760
p860
aV15cc264d3a6929f4
p861
aV15cc26203de4be73
p862
aV15cc254032e4d3c4
p863
aV15cc250154aa9302
p864
aV15cc1dee2931d37b
p865
aV15cc17d15bc6a377
p866
aV15cc0fd0c6b0dada
p867
aV15cc0f964e0970ec
p868
aV15cc0f7e77104b15
p869
aV15cc05c61f0d4ad9
p870
aV15cbf2ca8b2f65d9
p871
asS'11/16/2017'
p872
(lp873
V15fc332da5943102
p874
aV15fc332d96b71b8f
p875
aV15fc292814811125
p876
aV15fc267c49e7c980
p877
asS'01/04/2018'
p878
(lp879
V160c2bad9dcd3700
p880
aV160c27f5d91945c5
p881
aV160c271267bc6a5e
p882
aV160c23b7c56ad2bd
p883
aV160c11c96d2608de
p884
aV160c036e830c596b
p885
aV160bf8a7b2d8ecec
p886
aV160bf8a786d7768d
p887
aV160bf1c16efdcefd
p888
asS'05/25/2017'
p889
(lp890
V15c41c9b7a2c024e
p891
aV15c41655bc0458fe
p892
asS'06/21/2017'
p893
(lp894
V15ccc4f61dfde2a2
p895
aV15ccbe71aede63df
p896
aV15ccbe462e6f7a3f
p897
aV15ccbc71d1928939
p898
aV15ccbbe206f97e2a
p899
aV15ccb67f7812d321
p900
aV15ccadd22685e127
p901
aV15cca31333771fc9
p902
aV15cca004031f2630
p903
aV15cc9c956939d783
p904
aV15cc90c5987e2886
p905
asS'12/22/2017'
p906
(lp907
V1607f8ef5e463977
p908
aV1607f7e26e1a6ed2
p909
asS'08/07/2017'
p910
(lp911
V15dbeae0e4084d25
p912
aV15dbd35b125e9658
p913
aV15dbd2d5144b29f0
p914
aV15dbca620319db95
p915
aV15dbca3351989374
p916
aV15dbc9c9e92c1a9f
p917
aV15dbad9dbe81bc9c
p918
aV15dbad9a0690e692
p919
asS'09/16/2017'
p920
(lp921
V15e8ba5fbfd37d46
p922
aV15e88d810eece37f
p923
aV15e88d801d67dee0
p924
asS'07/31/2017'
p925
(lp926
V15d9afded2823aae
p927
aV15d9a622528bc873
p928
aV15d9a53e357c5f44
p929
aV15d9a4e055d009aa
p930
aV15d9a39e6f0832f0
p931
aV15d9a393343570a8
p932
aV15d99f296eab782d
p933
aV15d99ca80cfb18fc
p934
aV15d99be9baea2480
p935
aV15d99a8caca99944
p936
aV15d996aea31fb512
p937
aV15d99411602fd171
p938
aV15d993fba929acef
p939
aV15d993842f56c84d
p940
aV15d970a2c6a47710
p941
aV15d96e74b3c261f6
p942
aV15d96cd3bedea608
p943
aV15d96cd191a9df3d
p944
aV15d9681f66d1afac
p945
aV15d96652bfbf4e95
p946
aV15d961789b1938da
p947
aV15d960e403372e47
p948
aV15d960d214a9453b
p949
asS'06/22/2017'
p950
(lp951
V15cd2155197084ff
p952
aV15cd1d94dc629d27
p953
aV15cd1d4d0e9a93e5
p954
aV15cd1c7398607c37
p955
aV15cd1c2d3088137c
p956
aV15cd1c1138363f4e
p957
aV15cd1ba4678f39d3
p958
aV15cd1b142d52cf1e
p959
aV15cd19b3855ddbfe
p960
aV15cd18e827f90820
p961
aV15cd175eeb10c413
p962
aV15cd1734be2c9db7
p963
aV15cd171c4843bbb3
p964
aV15cd16f8328de366
p965
aV15cd16b3b4866275
p966
aV15cd16371b8d5e57
p967
aV15cd16167005079f
p968
aV15cd14373c309536
p969
aV15cd13be29d450b1
p970
aV15cd113ae152252f
p971
aV15cd0f4c63665a25
p972
aV15cd0f14cd45f0ee
p973
aV15cd0d8a9976adae
p974
aV15cd0cf47ec97d78
p975
aV15cd08bad7cbf173
p976
aV15cd08514edb10bf
p977
aV15cd079ce3a22cb6
p978
aV15cd0796a857b84e
p979
aV15cd077c3c395be5
p980
aV15cd070ae055d9c0
p981
aV15cd06eb2c4f5f41
p982
aV15cd06db1bbf7609
p983
aV15cd03f6f99a7e12
p984
aV15cd035faacae7d0
p985
aV15cce992cb907a5b
p986
aV15cce99102bc3cf5
p987
aV15cce3b16fd3d6aa
p988
aV15ccd9edcca98cb1
p989
asS'11/24/2017'
p990
(lp991
V15ff04e7645fbb65
p992
aV15ff00bd33867a90
p993
aV15fef7dc2db4e610
p994
aV15feea00ada24ed4
p995
aV15fee6f110b078d9
p996
aV15feda703f77cd55
p997
aV15fec65bcd1d4680
p998
aV15fec65bc13accb1
p999
asS'01/15/2018'
p1000
(lp1001
V160fb774b3664ee1
p1002
aV160fb5ab02b5fe35
p1003
aV160fb3e61bbd97db
p1004
aV160fb370d4b7c7d8
p1005
aV160fb06abe7f7e28
p1006
aV160f9d683ef380a8
p1007
aV160f935d2dc7fd95
p1008
aV160f92d8f0fe22c3
p1009
aV160f8306b3dd8c21
p1010
aV160f830689f97d07
p1011
asS'03/06/2017'
p1012
(lp1013
V15aa58cc876fe0de
p1014
aV15aa3d8e25b7a87a
p1015
asS'10/08/2017'
p1016
(lp1017
V15efbc6b60f7e77d
p1018
aV15efbc3072e2926b
p1019
aV15efa23eb1425c22
p1020
aV15efa23e98f1f000
p1021
asS'08/20/2017'
p1022
(lp1023
V15dfe8dbb1ab025d
p1024
aV15dfdcc4b5fc1b12
p1025
aV15dfdcc48bcb41d0
p1026
asS'09/09/2017'
p1027
(lp1028
V15e686bcb38a897c
p1029
aV15e686add17b193a
p1030
aV15e685895abcf994
p1031
aV15e6804b0ed231a1
p1032
aV15e67baadff6192f
p1033
aV15e67a6e430c0563
p1034
aV15e67a6c0269759f
p1035
aV15e67a62ba1e005f
p1036
aV15e6750309c1b4a2
p1037
aV15e66fa4b1cb3980
p1038
aV15e662d87653b063
p1039
aV15e64cb7a72bbd59
p1040
aV15e64cb78f9d0c07
p1041
aV15e6434f4ba9118a
p1042
aV15e641721cb3b770
p1043
asS'10/22/2017'
p1044
(lp1045
V15f423cf7d2f1e9c
p1046
aV15f423cf15a388ec
p1047
asS'04/28/2017'
p1048
(lp1049
V15bb619ad73d9e11
p1050
asS'05/23/2017'
p1051
(lp1052
V15c37b2bf20a103a
p1053
aV15c3791edd8bc9b5
p1054
aV15c3790eb7fc0cf2
p1055
aV15c3789c869758be
p1056
aV15c368a3a5ee85f2
p1057
aV15c362f9f7eb2a6b
p1058
aV15c3349c32e5f158
p1059
aV15c329b240568fa0
p1060
asS'05/15/2017'
p1061
(lp1062
V15c0e640fab80e44
p1063
aV15c0e51940d219de
p1064
aV15c0e2ba2762c2e0
p1065
aV15c0e263b8bbf5c3
p1066
aV15c0dddf106eec2e
p1067
aV15c0ddb037bc3f97
p1068
aV15c0d8c3d42c8cb4
p1069
aV15c0c4f77e6337cf
p1070
aV15c0c4b9e353a44d
p1071
aV15c0acfcb9b58c2d
p1072
aV15c0acef78c81c87
p1073
aV15c0a5780ea03651
p1074
aV15c0a563ba81d556
p1075
aV15c0a561df6d3334
p1076
aV15c0a55fe112dff1
p1077
aV15c0a55d03cb6129
p1078
aV15c0a453a346ed79
p1079
aV15c0a44ac0a35b13
p1080
aV15c0a4449abe2bb8
p1081
aV15c0a43755a89c1a
p1082
aV15c0a421b26afd9d
p1083
aV15c0a41400aa59cb
p1084
aV15c0a3ed998a5fc1
p1085
aV15c0a3e433b6d1d3
p1086
aV15c0a3dce475669e
p1087
aV15c0a3d3b54f358e
p1088
aV15c0a37d916903e5
p1089
aV15c0a37628b469ba
p1090
aV15c0a37027f57c8b
p1091
aV15c099f341fedf70
p1092
aV15c0997eaf6d6d77
p1093
aV15c099485baf10ba
p1094
aV15c098ea60638fa0
p1095
aV15c098dd9b8fe336
p1096
aV15c098bda061af4c
p1097
aV15c09828ab260f16
p1098
aV15c09828a78c0463
p1099
aV15c0982847ae6046
p1100
aV15c098280d05c97f
p1101
aV15c09827d297da3b
p1102
aV15c09827d1c9560d
p1103
aV15c09827c71c6755
p1104
aV15c09822bfd8c369
p1105
aV15c09821632cbeb6
p1106
aV15c098215f1cf865
p1107
aV15c0982159036ebe
p1108
aV15c0982155744343
p1109
aV15c0982152bc823a
p1110
aV15c0982151387620
p1111
aV15c098214e453270
p1112
aV15c098214c51c1c7
p1113
aV15c098214c221558
p1114
aV15c09821417710d0
p1115
aV15c0982140d801b6
p1116
aV15c098213f7b2db3
p1117
aV15c0982134420984
p1118
aV15c09821255e81b5
p1119
aV15c098211ce79816
p1120
aV15c09821120b38ce
p1121
aV15c098210438ac04
p1122
aV15c09820f0430d75
p1123
aV15c09820ec0ff1e7
p1124
aV15c09820e7ca99cf
p1125
aV15c09820de037186
p1126
aV15c09820cba0d17f
p1127
aV15c098209b66e204
p1128
aV15c098208aaf9e45
p1129
asS'03/02/2017'
p1130
(lp1131
V15a914fdd510138a
p1132
aV15a911102efea4d8
p1133
aV15a8fff8cd3df2fa
p1134
asS'11/27/2017'
p1135
(lp1136
V15fffb309af48f27
p1137
aV15ffed75ef003a68
p1138
aV15ffea950a8632b9
p1139
aV15ffe1d56cc53ce1
p1140
aV15ffe0f77d2f60ad
p1141
aV15ffe0f0134badcc
p1142
aV15ffdfd6ce55f2a1
p1143
aV15ffddabfa33cefd
p1144
aV15ffdda8389fed35
p1145
aV15ffdd6c7a0f2f8b
p1146
aV15ffdc4caa78f1d2
p1147
aV15ffdc42cd314ea0
p1148
aV15ffce32465e068a
p1149
aV15ffcbe6f944620f
p1150
aV15ffcb4f7b012b34
p1151
aV15ffbd8d1153598c
p1152
aV15ffbd8d031bda9d
p1153
aV15ffb05f8ea8b316
p1154
asS'07/20/2017'
p1155
(lp1156
V15d6249ae845645d
p1157
aV15d62287da885003
p1158
aV15d621dc8d974a2a
p1159
aV15d6207e59da8507
p1160
aV15d61a6cfdb5245e
p1161
aV15d60f743c363526
p1162
aV15d5e275010cd4d5
p1163
aV15d5e2720d4b66c2
p1164
aV15d5e10eaa9f518d
p1165
aV15d5dc99826a03b5
p1166
aV15d5dc7c2bc82396
p1167
aV15d5dbe795ff12a9
p1168
aV15d5db28607c2b6f
p1169
aV15d5daf70ed863f1
p1170
aV15d5d68dd0199bc9
p1171
asS'08/02/2017'
p1172
(lp1173
V15da4ea3fccfb08c
p1174
aV15da4e8f5c4ed748
p1175
aV15da4e7a244f5ab0
p1176
aV15da444b18e6cb1b
p1177
aV15da41dac4dab545
p1178
aV15da3d151c4b2edc
p1179
aV15da3c6448052a67
p1180
aV15da3a8be97930b3
p1181
aV15da335d407ba1e6
p1182
aV15da3335f1f0b291
p1183
aV15da13465b165e9e
p1184
aV15da11a210b47b9f
p1185
aV15da119f461079dd
p1186
asS'05/02/2017'
p1187
(lp1188
V15bcab6845f87bec
p1189
aV15bca2d86e76fe32
p1190
aV15bc9ca15fa5d9ef
p1191
aV15bc9bcf9193de0d
p1192
aV15bc7036e8f8b881
p1193
aV15bc6ffeda7d6d8c
p1194
asS'03/05/2017'
p1195
(lp1196
V15aa071bf617bec8
p1197
aV15aa06fe3fbe9bee
p1198
aV15aa06c1f3bcf40f
p1199
aV15aa06c14e692292
p1200
asS'03/09/2017'
p1201
(lp1202
V15ab4526d1794c1a
p1203
aV15ab24a719a7ff4e
p1204
asS'12/09/2017'
p1205
(lp1206
V1603c7a91493fa53
p1207
aV1603abebe7581764
p1208
aV1603a0a92032c2df
p1209
asS'09/30/2017'
p1210
(lp1211
V15ed4da8159130e6
p1212
aV15ed42d352de0338
p1213
aV15ed3dd0b6db3260
p1214
aV15ed1c816ce87061
p1215
aV15ed19f8d85efeac
p1216
aV15ed0f109ab89978
p1217
aV15ed0f1064ca9154
p1218
asS'09/15/2017'
p1219
(lp1220
V15e87dc48e976e67
p1221
aV15e87868ea626497
p1222
aV15e877d16123dceb
p1223
aV15e874ee07f5cfac
p1224
aV15e874dde3cc7261
p1225
aV15e871703d5675a8
p1226
aV15e8709cb9e51f92
p1227
aV15e86a79ed236ed8
p1228
aV15e86a58f0ad98e5
p1229
aV15e86a4b8771ba19
p1230
aV15e865fad8230ed5
p1231
aV15e86418b73e9e38
p1232
aV15e86404a47e3fdf
p1233
aV15e863d948aa4659
p1234
aV15e863a39589f814
p1235
aV15e863611afaa30e
p1236
aV15e86217bd04d71d
p1237
aV15e85f578faa4454
p1238
aV15e85b9ca2728893
p1239
aV15e83b1a396a8e5b
p1240
aV15e83b1a1f91aa9d
p1241
aV15e8362d67a3353d
p1242
aV15e8348fd1246d6f
p1243
aV15e83393d501826a
p1244
aV15e833692e6fdde1
p1245
aV15e831366d1b6fca
p1246
asS'02/10/2018'
p1247
(lp1248
V16180cca9aff609f
p1249
aV1617f059c4ae23ff
p1250
aV1617effa181abc6b
p1251
asS'05/26/2017'
p1252
(lp1253
V15c47250f69a6c87
p1254
aV15c465fb5bf5372e
p1255
aV15c464b4c62f1980
p1256
aV15c463020142e6eb
p1257
aV15c462cf0396da7c
p1258
aV15c462bcc58aab24
p1259
aV15c43783af6735e2
p1260
aV15c425f7db1e443c
p1261
asS'02/02/2018'
p1262
(lp1263
V1615881bd497e9a1
p1264
aV161587f840f9337f
p1265
aV1615875e18a09f59
p1266
aV161585b503709b1e
p1267
aV161583cc717bfd75
p1268
aV161577656ef38720
p1269
aV1615759a8590e15a
p1270
aV16155f4ab8208a42
p1271
aV1615477f4c3a317e
p1272
aV1615476a23f8f05f
p1273
asS'02/13/2018'
p1274
(lp1275
V16190f873995c6af
p1276
aV16190f7908de5bb6
p1277
aV16190f3269682a27
p1278
aV16190e7033f0f371
p1279
aV161905b6ee053377
p1280
aV1618f4fbaf287723
p1281
aV1618cc258e2946a4
p1282
aV1618cb73207348ae
p1283
aV1618cb0f59dcf597
p1284
aV1618cb058f2480c5
p1285
aV1618ca6d5acb6655
p1286
aV1618ca2dcae77f74
p1287
aV1618ca16f61506c4
p1288
asS'03/15/2017'
p1289
(lp1290
V15ad0b5ebae222b5
p1291
asS'12/28/2017'
p1292
(lp1293
V1609c32fa7b1bb8a
p1294
aV1609b7defacce79b
p1295
aV1609b7def35036b8
p1296
asS'11/20/2017'
p1297
(lp1298
V15fdb4769122421b
p1299
aV15fdafd847d948aa
p1300
aV15fda9ff8a7611b4
p1301
aV15fda627cd6f23a4
p1302
aV15fd9f7e15ddef7e
p1303
aV15fd9ef5b01fada8
p1304
aV15fd9ac9e3d82c23
p1305
aV15fd94f6ccdcbbd1
p1306
aV15fd900216b7e45b
p1307
aV15fd7cc4da3c1cbf
p1308
aV15fd7cc4bb2d8b2d
p1309
asS'05/07/2017'
p1310
(lp1311
sS'07/19/2017'
p1312
(lp1313
V15d5d41b553a8ac1
p1314
aV15d5d04c8028067c
p1315
aV15d5c8ffb96f41f7
p1316
aV15d5a2585eb56bcf
p1317
aV15d59a57bdf36562
p1318
aV15d5915ee75cb0d6
p1319
aV15d5913b1c9ba394
p1320
aV15d5906c2901729c
p1321
aV15d5905804cd3eaa
p1322
aV15d5900d6ec93099
p1323
aV15d5900cbdc2b75b
p1324
aV15d58f568d16f66c
p1325
aV15d58d0bbdd17b12
p1326
asS'12/11/2017'
p1327
(lp1328
sS'02/18/2018'
p1329
(lp1330
sS'09/01/2017'
p1331
(lp1332
V15e3f5796e902b21
p1333
aV15e3f425c8084a71
p1334
aV15e3df00c07e58e7
p1335
aV15e3c0ff60858421
p1336
aV15e3b989fbbe7910
p1337
aV15e3b989db984e0d
p1338
aV15e3b117134ed2ec
p1339
aV15e3aed52049f819
p1340
asS'11/05/2017'
p1341
(lp1342
V15f8d8bb74d8237e
p1343
aV15f8c89cf0da8516
p1344
aV15f8a55fa689c3bb
p1345
aV15f8a55f33106d31
p1346
aV15f898f387e8700d
p1347
asS'11/22/2017'
p1348
(lp1349
V15fe5116a5c10f19
p1350
aV15fe4e7f608446d2
p1351
aV15fe4dc6ea1edcd1
p1352
aV15fe4dadb7a1192e
p1353
aV15fe4d6e40512313
p1354
aV15fe4d66107bed7f
p1355
aV15fe49d9c6d5747f
p1356
aV15fe497f8ae06301
p1357
aV15fe4974ad4a704f
p1358
aV15fe477a22c3ebc5
p1359
aV15fe219053103e55
p1360
aV15fe21900acc3b5a
p1361
aV15fe14395085cf50
p1362
asS'07/12/2017'
p1363
(lp1364
V15d388eee90ec8a9
p1365
aV15d387dbeec620ad
p1366
aV15d387bf113f0a79
p1367
aV15d385be68d7285b
p1368
aV15d384aa41e2f2da
p1369
aV15d38489cf04d916
p1370
aV15d382f053f9bebf
p1371
aV15d381c7395d8508
p1372
aV15d37d861e1cbe37
p1373
aV15d37cde8ccbadd1
p1374
aV15d37c917e9837d6
p1375
aV15d37bf61f5e5e7c
p1376
aV15d37bad747b13b7
p1377
aV15d3787d7072be34
p1378
aV15d36f44db162cad
p1379
aV15d35c12b8d124aa
p1380
aV15d34f4440de497d
p1381
aV15d34f44380bc470
p1382
asS'08/03/2017'
p1383
(lp1384
V15daa05001682ff6
p1385
aV15da9f41fe0e27b1
p1386
aV15da9b02e0f71755
p1387
aV15da99f69a25b6e1
p1388
aV15da9923566ee9c5
p1389
aV15da82ea9632a6e1
p1390
aV15da670dc4ccdc23
p1391
aV15da666c7eaa7e65
p1392
aV15da65c59263d8b1
p1393
aV15da64047d489e35
p1394
aV15da64027caf1108
p1395
asS'07/23/2017'
p1396
(lp1397
V15d718724a681236
p1398
aV15d6d9a54500844d
p1399
aV15d6d9a393401cfd
p1400
asS'05/04/2017'
p1401
(lp1402
sS'12/12/2017'
p1403
(lp1404
V1604b96a15448c5b
p1405
aV1604a52169044997
p1406
aV1604a4e67bd81ce9
p1407
asS'06/10/2017'
p1408
(lp1409
V15c93f8c91c64395
p1410
aV15c93ea8a290ed77
p1411
aV15c93e795193c221
p1412
aV15c934db742075dd
p1413
aV15c9330b75cee44f
p1414
aV15c932c4865fed59
p1415
aV15c93091e090b641
p1416
aV15c92f105f942eb8
p1417
aV15c9217fb32e63ad
p1418
aV15c90cf26fae6329
p1419
aV15c90b60f36c8557
p1420
aV15c9099b6f3f9fcb
p1421
aV15c908e1d93878a6
p1422
aV15c907f2157f7894
p1423
aV15c906ff67995096
p1424
asS'12/21/2017'
p1425
(lp1426
V16078c62d19bcc7c
p1427
asS'11/08/2017'
p1428
(lp1429
V15f9aedbddea4c79
p1430
aV15f99fffd3a6f783
p1431
aV15f99fffc3bd80e8
p1432
asS'05/28/2017'
p1433
(lp1434
V15c500f9d2257b28
p1435
asS'11/03/2017'
p1436
(lp1437
V15f8009490558ceb
p1438
aV15f800940007579d
p1439
asS'07/28/2017'
p1440
(lp1441
V15d8b7a41bc52578
p1442
aV15d8b7a368336adb
p1443
aV15d8b6da1bc1366e
p1444
aV15d8b307a7095fec
p1445
aV15d8b238b599525c
p1446
aV15d8a676b2f45ce0
p1447
aV15d87b76ab78a4b3
p1448
aV15d8768b51637aa1
p1449
aV15d875a50bcff9c1
p1450
aV15d875a019885bfd
p1451
asS'04/02/2017'
p1452
(lp1453
V15b306c6cc4d63ee
p1454
aV15b3001720e27595
p1455
asS'03/21/2017'
p1456
(lp1457
V15af2f43402b6512
p1458
aV15af2de28ecbc382
p1459
aV15af17e80e65b134
p1460
aV15af16ecf59bc55a
p1461
aV15af133c03d4024b
p1462
asS'12/19/2017'
p1463
(lp1464
V16070f7190a8a5b3
p1465
aV1606e27e2aa92a3e
p1466
asS'08/30/2017'
p1467
(lp1468
V15e355ba23740600
p1469
aV15e3548604161d90
p1470
aV15e3473a1ab4eb3d
p1471
aV15e3436fe1f0d279
p1472
aV15e3436e0a5659b3
p1473
aV15e340715ade2572
p1474
aV15e33bece2ccf49c
p1475
aV15e33aa52d6aecc8
p1476
aV15e33763ef42cc3d
p1477
aV15e315bda94921ec
p1478
aV15e314c1a3213fac
p1479
aV15e314be8ccc2cf0
p1480
aV15e3133fd70310f4
p1481
asS'07/09/2017'
p1482
(lp1483
V15d29bde016d5d4e
p1484
aV15d28f211855b54b
p1485
aV15d28e9f9d7ba78e
p1486
aV15d28946d0b9e617
p1487
aV15d27ba8bcc755cf
p1488
aV15d268321f3dc760
p1489
aV15d25814ff8154f8
p1490
aV15d25812c2fc67aa
p1491
asS'04/11/2017'
p1492
(lp1493
V15b5f33d5dcfcc4b
p1494
aV15b5db99dc63a0a4
p1495
aV15b5db3fe9eba575
p1496
aV15b5db2106118cdd
p1497
aV15b5b48f86fa8975
p1498
aV15b5ab8e79acfb9e
p1499
asS'01/24/2018'
p1500
(lp1501
V16128bdd3166551a
p1502
asS'02/04/2018'
p1503
(lp1504
V161633384fce548b
p1505
aV161631a886347fef
p1506
asS'04/23/2017'
p1507
(lp1508
sS'02/16/2018'
p1509
(lp1510
V1619fb57ddcd2d14
p1511
aV1619d4adfc3d733d
p1512
asS'06/17/2017'
p1513
(lp1514
V15cb67619d57da08
p1515
aV15cb4882823d9d05
p1516
aV15cb41d05498876d
p1517
asS'01/22/2018'
p1518
(lp1519
V1611ed882569a418
p1520
aV1611ed4c94bacac0
p1521
aV1611c4a2efb0d9f6
p1522
aV1611bffd0f04b779
p1523
aV1611b67f8f52903b
p1524
aV1611b3e5a3bd27d6
p1525
aV1611b3e4e4796637
p1526
asS'07/11/2017'
p1527
(lp1528
V15d339677900daa5
p1529
aV15d33883661acab8
p1530
aV15d3357c4f8cf872
p1531
aV15d33397f17ef591
p1532
aV15d32ea9b2afe2da
p1533
aV15d3268e421b7414
p1534
aV15d32161e3e7cafc
p1535
aV15d32003f93ed316
p1536
aV15d315f9b6c28508
p1537
aV15d30c6daa09e702
p1538
aV15d308d42ef7a9b4
p1539
aV15d305a1ccc7dc3f
p1540
aV15d3026f31c8ee73
p1541
aV15d3020f0fc892ab
p1542
aV15d301fdf8cd63da
p1543
aV15d2fcdf4d9462c1
p1544
aV15d2fcde63a5f86d
p1545
aV15d2fc0cffe116ef
p1546
asS'10/26/2017'
p1547
(lp1548
V15f57a9162a459ea
p1549
aV15f57a215c4044b6
p1550
aV15f574fd5e81fef1
p1551
aV15f56d662fa07674
p1552
aV15f56d66156cf684
p1553
asS'07/08/2017'
p1554
(lp1555
V15d242b5d600c67e
p1556
aV15d2419c441bde6d
p1557
aV15d23ca3be272e84
p1558
aV15d23c898e97a69a
p1559
aV15d23b8c489c9377
p1560
aV15d238be2807ac94
p1561
aV15d2340379ec1130
p1562
aV15d233e2e2c50c80
p1563
aV15d2111c1ccab778
p1564
aV15d20e59b3247437
p1565
aV15d205b00bc369af
p1566
aV15d205ad6c5797be
p1567
aV15d1fd21dc25141b
p1568
aV15d1fce84262a3ed
p1569
aV15d1f91bfda3a965
p1570
asS'09/23/2017'
p1571
(lp1572
V15eb11076d782e25
p1573
aV15eb03dd0d7c713e
p1574
aV15eb03a72fc6654b
p1575
aV15eaf66a416925f1
p1576
aV15eaf5fd2d6ad73d
p1577
aV15eaf5686151d1ea
p1578
aV15eaf4be8b236309
p1579
aV15eae3f2cb397caf
p1580
aV15eace4865d074f4
p1581
aV15eace4858ef7a98
p1582
asS'03/18/2017'
p1583
(lp1584
V15ae32bcc3875ecc
p1585
aV15ae181436a7c50c
p1586
aV15adf81353a86f4a
p1587
asS'08/22/2017'
p1588
(lp1589
V15e0c57543adadeb
p1590
aV15e0c57184bb6afb
p1591
aV15e0c4306f6ceb75
p1592
aV15e0c00c6b81a8ea
p1593
aV15e0bd7b0be24be2
p1594
aV15e0abc0aabaf60e
p1595
aV15e0aad6f94346e6
p1596
aV15e0a9affd2a28e2
p1597
aV15e0a7a078471c6a
p1598
aV15e0a6fb5cff5704
p1599
aV15e09ed700d597e1
p1600
aV15e081905f87e5b1
p1601
aV15e0818ffcd81bf5
p1602
asS'02/24/2017'
p1603
(lp1604
V15a712740bef25e8
p1605
aV15a7117cf0638aaa
p1606
aV15a7114e55dd39f4
p1607
aV15a6e0d2bd36d241
p1608
asS'12/27/2017'
p1609
(lp1610
V1609a6920b9bada4
p1611
aV160972a1f74fd0c9
p1612
aV16096579a1525acf
p1613
aV16096579794bba6e
p1614
asS'10/20/2017'
p1615
(lp1616
V15f3b3d7df1c2a60
p1617
aV15f3a9c19533ae09
p1618
aV15f390a6f14648c4
p1619
aV15f37f03da56fff1
p1620
aV15f37f03ac56b6a6
p1621
aV15f378ac4eda2769
p1622
asS'07/16/2017'
p1623
(lp1624
V15d4d18454dae397
p1625
aV15d4cb8b3d037a6a
p1626
aV15d4c81ab37f2f5a
p1627
aV15d4c7bbf4e75fa0
p1628
aV15d4c7385a402dc8
p1629
aV15d4c55e47095afe
p1630
aV15d4c36395c2283b
p1631
aV15d4c13c82fc2d6b
p1632
aV15d4c10f4a9bcb50
p1633
aV15d4b9ecfa204486
p1634
aV15d4a864b63e5513
p1635
aV15d4a79e8d5eaa51
p1636
aV15d49b540b8643a6
p1637
aV15d49a1dfa385d8f
p1638
aV15d499afcd0290fd
p1639
aV15d498dc55f8070b
p1640
aV15d498db25b3e01c
p1641
asS'12/17/2017'
p1642
(lp1643
V1606615200925e56
p1644
aV1606426d8faf94b8
p1645
asS'03/08/2017'
p1646
(lp1647
V15ab05b5f963f6de
p1648
aV15aaf23e306bcfb5
p1649
aV15aaddccb093a26a
p1650
asS'09/11/2017'
p1651
(lp1652
V15e72199857716ab
p1653
aV15e6f3f45c183ef9
p1654
aV15e6f3f0946332b4
p1655
aV15e6f18325a2f9ed
p1656
aV15e6f18303e235f5
p1657
asS'12/08/2017'
p1658
(lp1659
sS'04/12/2017'
p1660
(lp1661
sS'03/22/2017'
p1662
(lp1663
V15af6e3e32d326f2
p1664
aV15af6e37b345dc49
p1665
asS'07/14/2017'
p1666
(lp1667
V15d419801c2730e8
p1668
aV15d411f72a931913
p1669
aV15d40dc18448d617
p1670
aV15d40608c475ade3
p1671
aV15d3f9a45102a8e4
p1672
aV15d3f40f742183fe
p1673
aV15d3f40f6ebb29ba
p1674
aV15d3f208aed49eca
p1675
aV15d3f16df2d9180b
p1676
asS'12/03/2017'
p1677
(lp1678
V1601ab9217781f4f
p1679
asS'11/29/2017'
p1680
(lp1681
V1600a1ec2f0c5885
p1682
aV16006cffeb14acc9
p1683
aV16006807010f0984
p1684
aV1600625a6229bf98
p1685
aV1600625868aa1913
p1686
asS'09/17/2017'
p1687
(lp1688
V15e9200af7a9190b
p1689
aV15e9200ab624e358
p1690
aV15e8e6b1026daf70
p1691
aV15e8dfe5c3a19d94
p1692
aV15e8dfe59e12cf40
p1693
asS'06/30/2017'
p1694
(lp1695
V15cfa191e257972e
p1696
aV15cf9e2f4cd21497
p1697
aV15cf9d13a2e2fb8f
p1698
aV15cf97c4d7170465
p1699
aV15cf93cca4556074
p1700
aV15cf83d2128f59a2
p1701
asS'04/30/2017'
p1702
(lp1703
V15bc13a14e8c78c0
p1704
asS'08/09/2017'
p1705
(lp1706
V15dc81d47be62151
p1707
aV15dc7a1824df411c
p1708
aV15dc6f6a8ca146dd
p1709
aV15dc62b8143b1c4f
p1710
aV15dc5265547707bd
p1711
aV15dc52655378e252
p1712
asS'10/24/2017'
p1713
(lp1714
V15f500d43d839106
p1715
aV15f4c89abe7f3b21
p1716
aV15f4c89a46dba841
p1717
aV15f4c5488fc70fb7
p1718
asS'08/06/2017'
p1719
(lp1720
V15db5b37c6acc7e5
p1721
aV15db5b3417c93e02
p1722
asS'02/27/2017'
p1723
(lp1724
V15a80ed1f9ac01d7
p1725
aV15a8016eb29d6f07
p1726
asS'10/23/2017'
p1727
(lp1728
V15f4b2e7a5653bcc
p1729
aV15f4a8297ad3b59e
p1730
aV15f4a74f3a37199a
p1731
aV15f4a4b2ac18eedb
p1732
aV15f49f80cd91066d
p1733
aV15f47634bc8987c4
p1734
aV15f47634a6d8bfe0
p1735
asS'04/17/2017'
p1736
(lp1737
V15b7d4d6efca9fee
p1738
aV15b796a76a05468b
p1739
aV15b79458fcf1e8ee
p1740
asS'10/13/2017'
p1741
(lp1742
V15f13e3b9ddd4eb2
p1743
aV15f13e3b6c8fbca1
p1744
asS'01/09/2018'
p1745
(lp1746
V160dce43074d0ec0
p1747
aV160dc958d774b857
p1748
aV160db21917f711ff
p1749
aV160db17541790a32
p1750
aV160d94a44282ab11
p1751
aV160d94a3bf85ea19
p1752
aV160d86434cf678be
p1753
aV160d857bc732304f
p1754
asS'06/18/2017'
p1755
(lp1756
V15cbd9699985e358
p1757
aV15cbd21190acfbe8
p1758
aV15cbd189d30c94d4
p1759
aV15cbc242c3824f36
p1760
aV15cbbf74def368f2
p1761
aV15cbab27d9b15604
p1762
aV15cbaad1a4ba252e
p1763
aV15cbaad0af9cfe1b
p1764
aV15cba0e93b4ff1f9
p1765
aV15cba0e86398a8a6
p1766
aV15cba0e06985b7b8
p1767
aV15cba0dfbd4b659e
p1768
aV15cba0bcbe7bfae6
p1769
aV15cba0bbf59b93db
p1770
aV15cba0ad9b6582cf
p1771
aV15cba0accd2777ce
p1772
aV15cba078e9a60c6d
p1773
aV15cba078433e9635
p1774
aV15cba063ca14434d
p1775
aV15cba063176d9b88
p1776
aV15cba01cf2984c75
p1777
aV15cba01c2b625e0d
p1778
aV15cb9fef3911fa77
p1779
aV15cb9fee26e221c5
p1780
aV15cb9fd8cac6ca66
p1781
aV15cb9fd75e9139f6
p1782
aV15cb9fcc2c083ef9
p1783
aV15cb9fcb374e14ab
p1784
aV15cb9fb26aa8587e
p1785
aV15cb9fb123426034
p1786
aV15cb925b5a333939
p1787
aV15cb925a7edd4823
p1788
asS'04/07/2017'
p1789
(lp1790
V15b4ad9c18686a14
p1791
aV15b49fec42ba2691
p1792
aV15b49213abad7fce
p1793
asS'12/23/2017'
p1794
(lp1795
sS'02/20/2018'
p1796
(lp1797
V161b4baf2c73ecc8
p1798
asS'01/28/2018'
p1799
(lp1800
V1613e50f3853b067
p1801
aV1613b5cfddc33832
p1802
asS'09/13/2017'
p1803
(lp1804
V15e7cf7f971663e1
p1805
aV15e7cec855150d19
p1806
aV15e7cdd9469ff61f
p1807
aV15e7cab93f877459
p1808
aV15e7c5778016104f
p1809
aV15e7c4899905e3b6
p1810
aV15e7c40782777ed5
p1811
aV15e7b3cd0d239fcb
p1812
aV15e7b347f7ce6d8e
p1813
aV15e799a700d7a1a6
p1814
aV15e7964edd2bd0c0
p1815
aV15e7964edad11387
p1816
asS'05/27/2017'
p1817
(lp1818
V15c4b26a1bab24f8
p1819
aV15c4b179f7babfaf
p1820
aV15c4876c486b72ab
p1821
aV15c485596c3dd770
p1822
aV15c481fbc524b021
p1823
asS'06/01/2017'
p1824
(lp1825
V15c642a34838abed
p1826
aV15c63d79c6d4c81c
p1827
aV15c6173f1f89d442
p1828
asS'09/14/2017'
p1829
(lp1830
V15e81aa41a1d34c4
p1831
aV15e818f0123babbb
p1832
aV15e80cc0c417ced2
p1833
aV15e80b415dda084d
p1834
aV15e806e5cc7c83e6
p1835
aV15e7e8b46f7ad7ec
p1836
aV15e7e8b42e602590
p1837
aV15e7e0dad7edcf07
p1838
asS'09/18/2017'
p1839
(lp1840
V15e970c9270c2f57
p1841
aV15e970110431a41c
p1842
aV15e95fe973444940
p1843
aV15e95eeb7fbb672b
p1844
aV15e958e0dbdbd585
p1845
aV15e9324b5efd8146
p1846
aV15e9324af6fb74b5
p1847
aV15e92bb6a3052990
p1848
aV15e92ac1358a522b
p1849
asS'02/05/2018'
p1850
(lp1851
V16167bcbed0a3b96
p1852
aV16167a985473394a
p1853
aV16167687afc35830
p1854
aV161671e529511d7a
p1855
aV1616710a251986ed
p1856
aV161659ddbd7b444c
p1857
aV16163951c60bbe5c
p1858
asS'01/11/2018'
p1859
(lp1860
V160e786eaac87ace
p1861
aV160e7835fd903257
p1862
aV160e7596a4aab25b
p1863
aV160e74917f570ebf
p1864
aV160e73db4a50d540
p1865
aV160e6e2c13433f73
p1866
aV160e6d8dd18a1cf4
p1867
aV160e4be62ed17256
p1868
aV160e3e632feb07b2
p1869
aV160e3c7330af3073
p1870
aV160e396fbb94a81a
p1871
aV160e396face60442
p1872
aV160e35a1165bde2a
p1873
aV160e2c97871dbc1d
p1874
aV160e286fd02e6433
p1875
asS'02/22/2017'
p1876
(lp1877
sS'01/21/2018'
p1878
(lp1879
V16117169371bc879
p1880
aV16117169224a719c
p1881
aV16116ce4e00e25a1
p1882
asS'01/12/2018'
p1883
(lp1884
V160ec5aa347f3fb4
p1885
aV160ec023d9dcd94b
p1886
aV160ebfd25532411c
p1887
aV160ebfbef6f136fd
p1888
aV160eb90e1ff93f32
p1889
aV160eb66511e9b505
p1890
aV160e8bd542d99cb4
p1891
aV160e8bd5388f0211
p1892
asS'08/18/2017'
p1893
(lp1894
V15df3ef6c29625ba
p1895
aV15df37f94cf14399
p1896
aV15df37f8e9236396
p1897
asS'07/26/2017'
p1898
(lp1899
V15d80ee08d7c6c98
p1900
aV15d806d10a16a202
p1901
aV15d80515e516b625
p1902
aV15d803369277209d
p1903
aV15d8004f6b24185b
p1904
aV15d7ff529c343674
p1905
aV15d7fee591de0607
p1906
aV15d7fee4e2c73516
p1907
aV15d7fdd8a23423a0
p1908
aV15d7fdd8518ac14c
p1909
aV15d7fd7a15f8f8c8
p1910
aV15d7fd7a10257a8a
p1911
aV15d7fd7a0b5eb75f
p1912
aV15d7fd7a0b1f3055
p1913
aV15d7fd7a0a9e7e20
p1914
aV15d7fd7a07fa0ae2
p1915
aV15d7fd7a014ce19b
p1916
aV15d7fd777ecc524c
p1917
aV15d7fd7779b4b026
p1918
aV15d7fd77771ea380
p1919
aV15d7fd776c88e80f
p1920
aV15d7fd7761f20553
p1921
aV15d7fa6d89869f40
p1922
aV15d7f6d8fe0b9801
p1923
aV15d7f6b7ef3cf2ec
p1924
aV15d7f688389a3d10
p1925
aV15d7f687cde99f48
p1926
aV15d7f68135ecdec0
p1927
aV15d7f674add81d03
p1928
aV15d7f195ae75873e
p1929
aV15d7ea4adcbf8491
p1930
aV15d7d682013fd3e9
p1931
aV15d7d5640948a32c
p1932
aV15d7d1b9a29bebdd
p1933
aV15d7d1ae9d954f43
p1934
aV15d7d17d6bf969f4
p1935
aV15d7d0eae5f56cf5
p1936
aV15d7d0d779796469
p1937
aV15d7d0d4d0f4cab6
p1938
aV15d7cf13f219a518
p1939
aV15d7cdb2a2e2ad3f
p1940
aV15d7cd223c856b67
p1941
aV15d7ccf37bbbb558
p1942
aV15d7c73bd92ec080
p1943
aV15d7c709e8bd9f96
p1944
aV15d7c621d4c59174
p1945
aV15d7c5c981aa2c22
p1946
aV15d7c55c73b28285
p1947
aV15d7c50999a7ccf1
p1948
asS'02/03/2018'
p1949
(lp1950
V1615cd8405d961fb
p1951
aV1615cced29ca449f
p1952
aV1615c6134b208809
p1953
asS'09/26/2017'
p1954
(lp1955
V15ec024edd88d5e6
p1956
aV15ebc579803d7c77
p1957
aV15ebc5797c662e1a
p1958
aV15ebc4dcda8b75c9
p1959
asS'12/07/2017'
p1960
(lp1961
V16031f7997949e75
p1962
aV160303263cf64b4b
p1963
aV1603029908c603e8
p1964
asS'02/08/2018'
p1965
(lp1966
V16177c7242d8000e
p1967
aV161778e499a9c6f4
p1968
aV161778b7812b27b9
p1969
aV161778abb99304d7
p1970
aV161776681c47a5a1
p1971
aV16176c1e18fa5f1c
p1972
aV16176bd2f7935cb9
p1973
aV16176b391898735c
p1974
aV1617610fe3a8fdcd
p1975
aV16175b1bdda0a107
p1976
asS'10/03/2017'
p1977
(lp1978
V15ee307f4273d985
p1979
aV15ee3056e2bdcbdc
p1980
aV15ee2d329389a88d
p1981
aV15ee2b05878d5446
p1982
aV15ee14d4428cf4c8
p1983
aV15ee0f2c5b05e81e
p1984
aV15ee0641c1082323
p1985
aV15ee0641b45912d3
p1986
asS'04/19/2017'
p1987
(lp1988
V15b86b3d3600f732
p1989
aV15b852b14a6bdf9a
p1990
asS'01/19/2018'
p1991
(lp1992
V1611082dbbf081cc
p1993
aV16110822cd305918
p1994
aV161107c6d054bb12
p1995
aV161106f6dca772ba
p1996
aV1611006f5c71d6b7
p1997
aV1610fc194ae6e606
p1998
aV1610dc0ff1d77c55
p1999
aV1610d7268de7ccbb
p2000
aV1610d6fc98833989
p2001
aV1610d587ad4fabb1
p2002
aV1610cc9e11530acc
p2003
aV1610cc9dc7f9558a
p2004
asS'12/26/2017'
p2005
(lp2006
V160917cf0e04a9bb
p2007
asS'06/11/2017'
p2008
(lp2009
V15c991048cc244e6
p2010
aV15c98ea164480788
p2011
aV15c988ac10bc6598
p2012
aV15c95316c75d5297
p2013
aV15c9530075b36cb4
p2014
aV15c952e5a84f996f
p2015
aV15c952c9b7590827
p2016
aV15c94c2183a8c8ad
p2017
aV15c94c02f1d4cc26
p2018
aV15c94bd973a45e30
p2019
aV15c94b559d07912d
p2020
asS'12/05/2017'
p2021
(lp2022
sS'04/13/2017'
p2023
(lp2024
V15b695ced19f7309
p2025
aV15b68c3736774565
p2026
aV15b68b9d66e30254
p2027
asS'06/02/2017'
p2028
(lp2029
V15c6ad02ee6cf4bc
p2030
aV15c6aa867fe82562
p2031
aV15c6a49c1203e012
p2032
aV15c6a39c72598ff3
p2033
aV15c69fdb383ce2fd
p2034
aV15c69844a0596d87
p2035
aV15c693e2f51b4179
p2036
asS'11/30/2017'
p2037
(lp2038
V1600e5528c20313e
p2039
aV1600e43f7e6daebc
p2040
aV1600e36472861efa
p2041
aV1600e34a18cc9c41
p2042
asS'12/20/2017'
p2043
(lp2044
V1607540200910801
p2045
aV1607507e82a091fd
p2046
aV16073e23f14f9bb5
p2047
asS'05/03/2017'
p2048
(lp2049
V15bd0acb99811c41
p2050
aV15bd0ab96a1a0fe0
p2051
aV15bd0a5de3811439
p2052
aV15bd0a557e56dd1d
p2053
aV15bd0a419d1ff06e
p2054
aV15bcf3978e529ea7
p2055
aV15bcede701af079e
p2056
aV15bceca9bf79d971
p2057
aV15bcec3b3ed0fc93
p2058
asS'06/09/2017'
p2059
(lp2060
V15c8f4b240f00bb3
p2061
aV15c8f466a4370b65
p2062
aV15c8f1c6bfc12beb
p2063
aV15c8e968ab4b4d5d
p2064
aV15c8e8dbe2b5fc24
p2065
aV15c8e53e3a9c21a5
p2066
aV15c8e05f583dc2c5
p2067
aV15c8db8ad6e33522
p2068
aV15c8db84e92d3681
p2069
aV15c8d31e0320e688
p2070
aV15c8b4ec1af9c65c
p2071
aV15c8b41ab21004fb
p2072
aV15c8b2c6f04c030b
p2073
aV15c8b294db31f5fd
p2074
asS'03/26/2017'
p2075
(lp2076
V15b0c34da601eda5
p2077
asS'08/31/2017'
p2078
(lp2079
V15e3a945c2cbacf5
p2080
aV15e3a1bd2180ae64
p2081
aV15e397dedb151116
p2082
aV15e3971da6261b61
p2083
aV15e39674c40e0b89
p2084
aV15e39124925acdfe
p2085
aV15e389892c6c67af
p2086
aV15e3885f22fab6d0
p2087
aV15e38720ab6ed7aa
p2088
aV15e367249c89bff1
p2089
aV15e367242ac71d5d
p2090
aV15e35f64144ccd80
p2091
aV15e35c37f0e7f082
p2092
asS'07/04/2017'
p2093
(lp2094
V15d0c7ee70300cde
p2095
aV15d0c7ebb34c427f
p2096
aV15d0bc1819d70816
p2097
aV15d0bc16cb024f0b
p2098
asS'04/22/2017'
p2099
(lp2100
sS'11/21/2017'
p2101
(lp2102
V15fe0696d70071a6
p2103
aV15fdff824b4626fd
p2104
aV15fdfdeff088dcf2
p2105
aV15fdcf2a9e372905
p2106
aV15fdcf2a71dd67ed
p2107
aV15fdc103786f1f80
p2108
aV15fdc050b378e950
p2109
asS'10/12/2017'
p2110
(lp2111
V15f0ebd59682aaf3
p2112
aV15f0ebd591930b25
p2113
asS'04/10/2017'
p2114
(lp2115
V15b5960826881315
p2116
asS'01/27/2018'
p2117
(lp2118
V16136ae09b942215
p2119
aV161360034761b5de
p2120
aV16135f6135f157d6
p2121
aV16135766f2ab29d6
p2122
aV161354a771397a6d
p2123
aV16134ec0ba78fec7
p2124
asS'07/07/2017'
p2125
(lp2126
V15d1eec1d86671c7
p2127
aV15d1eec1d847a8f0
p2128
aV15d1ecdddaafa495
p2129
aV15d1ecbae2525242
p2130
aV15d1ec2db4284edf
p2131
aV15d1ec01ad154364
p2132
aV15d1ebfb29322560
p2133
aV15d1ebd08feae598
p2134
aV15d1eba590da5422
p2135
aV15d1eb930db53185
p2136
aV15d1dd2fa37bbada
p2137
aV15d1dcca11db0b41
p2138
aV15d1bba2aae75d5d
p2139
aV15d1bb44be72b6cd
p2140
aV15d1bb03739b0f55
p2141
aV15d1b97a45c8467d
p2142
aV15d1b40fa9baaaa1
p2143
aV15d1b34d5147ec64
p2144
aV15d1b347bc593e0d
p2145
aV15d1aa0ed47e9ffa
p2146
aV15d1a8f6eccc650d
p2147
aV15d1a8d497383655
p2148
aV15d1a80c9812eef1
p2149
aV15d1a7c06c8062f0
p2150
aV15d1a756f7aa34f0
p2151
aV15d1a720b7c842a0
p2152
aV15d1a6c11743ba87
p2153
aV15d1a66114b1a4bd
p2154
aV15d1a64f78d02293
p2155
asS'03/20/2017'
p2156
(lp2157
V15aee11776624b01
p2158
aV15aedc7611dd0556
p2159
aV15aedb1e881eb9b8
p2160
aV15aed4d9da4083a8
p2161
aV15aed452536d07ce
p2162
aV15aed44020521be7
p2163
aV15aec19b961cb339
p2164
aV15aebf874ab830fa
p2165
aV15aea34bbc0ce9f2
p2166
aV15aea0370e3e5423
p2167
aV15ae9a6515c0077a
p2168
aV15ae93d6d1fafb70
p2169
aV15ae93d6c94c9e41
p2170
asS'08/29/2017'
p2171
(lp2172
V15e2fa19023babb1
p2173
aV15e2f9a3fef51c16
p2174
aV15e2e7d5c26c5c1d
p2175
aV15e2e694c0bfedb1
p2176
aV15e2dbbf38547ea2
p2177
aV15e2caa48187eb22
p2178
aV15e2c7ab1dfa7fc2
p2179
aV15e2c79de939a159
p2180
aV15e2c7176e6d2664
p2181
aV15e2c70a0875e6fc
p2182
aV15e2c2b70c18f68c
p2183
aV15e2c25e9777ca46
p2184
aV15e2c25821a70f26
p2185
aV15e2c004d47bd7f7
p2186
asS'01/17/2018'
p2187
(lp2188
V161064ddcb0f83b6
p2189
aV1610281053f07fd7
p2190
aV161027d259524338
p2191
aV161027d23d62f746
p2192
asS'04/16/2017'
p2193
(lp2194
V15b790404452d974
p2195
aV15b77a422fe90514
p2196
asS'01/08/2018'
p2197
(lp2198
V160d7ba0c28fb263
p2199
aV160d77edd04eab14
p2200
aV160d64bcf0de7767
p2201
aV160d63e57c852c7c
p2202
aV160d49474d818712
p2203
aV160d423e776de93c
p2204
aV160d423e650d721f
p2205
aV160d3cab56550c37
p2206
aV160d363f296f0505
p2207
asS'08/17/2017'
p2208
(lp2209
V15df1d4bb9fdf8ff
p2210
aV15df18a4d8660606
p2211
aV15df1324aa593f1a
p2212
aV15df130efbfe5984
p2213
aV15df12d902ee5627
p2214
aV15df12d03169a1dd
p2215
aV15def1bd58ff66a4
p2216
aV15dee59384f018c2
p2217
aV15dee5934d031159
p2218
asS'04/15/2017'
p2219
(lp2220
sS'11/11/2017'
p2221
(lp2222
V15fa9e10c4bbb63d
p2223
aV15fa9e0c63a9d2d2
p2224
aV15fa9e0ad13be7f8
p2225
aV15fa9e089604b554
p2226
aV15fa9dfd1d80a7ac
p2227
aV15fa9731444353a0
p2228
aV15fa9731312d88cd
p2229
asS'10/11/2017'
p2230
(lp2231
V15f0cfe50cc39423
p2232
aV15f099700e388163
p2233
aV15f0996ff3980820
p2234
asS'01/03/2018'
p2235
(lp2236
V160bc34aac7ba476
p2237
aV160bc332a70ced7f
p2238
aV160bae0948d639a5
p2239
aV160badf12066aa4d
p2240
aV160baac2613a05c9
p2241
aV160ba64ac161a157
p2242
aV160ba64416688c93
p2243
aV160b9eaa6575ccca
p2244
aV160b9e94bfcff483
p2245
aV160b9d6893965689
p2246
asS'03/19/2017'
p2247
(lp2248
V15ae7f0870fb2546
p2249
aV15ae7e6bb235acbe
p2250
aV15ae7dc4309f16d2
p2251
aV15ae546195af5f08
p2252
asS'05/05/2017'
p2253
(lp2254
V15bda931c2a3eee8
p2255
aV15bd9972b622e710
p2256
aV15bd7cdf47ff22ff
p2257
asS'03/24/2017'
p2258
(lp2259
V15b02566fe399293
p2260
aV15b01aba05526ffa
p2261
aV15b0185c7234a91a
p2262
asS'06/12/2017'
p2263
(lp2264
V15c9e5bff4dd1f90
p2265
aV15c9d6c58b58a692
p2266
aV15c9d0b6111f6321
p2267
aV15c9d04be0b8587a
p2268
aV15c9cf88497e3c86
p2269
aV15c9ce32968bc43e
p2270
asS'10/17/2017'
p2271
(lp2272
V15f287d3b0aaaf05
p2273
aV15f287d2e7a4c722
p2274
asS'03/23/2017'
p2275
(lp2276
V15afc332eed8ed25
p2277
aV15afc30d0695e1e7
p2278
aV15afc288888cf96b
p2279
aV15af9e989d4eb553
p2280
asS'03/13/2017'
p2281
(lp2282
sS'06/28/2017'
p2283
(lp2284
V15cf0f97bdc1e560
p2285
aV15cf0d6c47097cd5
p2286
aV15cf0d32150fc882
p2287
aV15cf0827991a82a5
p2288
aV15cf07fc5a164542
p2289
aV15cf07a974797fea
p2290
aV15cf07694ec39c4a
p2291
aV15cf075775be54d8
p2292
aV15cf0748c41e45a2
p2293
aV15cf071bb87bbf9a
p2294
aV15cf07083154f40d
p2295
aV15cf0401ee847e2a
p2296
aV15cf0129963bcf61
p2297
aV15cf00ead547174c
p2298
aV15cf00d47752e6c2
p2299
aV15ceff3957b342d5
p2300
aV15cefdde00680c95
p2301
aV15cefdc42ef9dd30
p2302
aV15cefcba06331fae
p2303
aV15cefb78a8615e65
p2304
aV15cefb5ed3895ead
p2305
aV15cefb176ea882e3
p2306
aV15cef95fbced6502
p2307
aV15cef9250e3c11cc
p2308
aV15cef91f09baefc1
p2309
aV15cef914430b819e
p2310
aV15cef8e80a805a83
p2311
aV15cef87a93de6a37
p2312
aV15cef86da1da2f7b
p2313
aV15cef8313d2c9c77
p2314
aV15cef80d4e4c1253
p2315
aV15cef7f932c85ffb
p2316
aV15cef7bf16d5321f
p2317
aV15cef728c0b042bc
p2318
aV15cef70fe27bb73b
p2319
aV15cef6e442b3080c
p2320
aV15cef6c53c232bcf
p2321
aV15cef6bc17a7c5a2
p2322
aV15cef609e3b01476
p2323
aV15cef560de2cf9a9
p2324
aV15cef2aa9cbcff12
p2325
aV15cef26170bdb6db
p2326
aV15cef20c4b509d5e
p2327
aV15cef139ebc614a2
p2328
aV15cee2fbb008b3fe
p2329
aV15cedec637d8b55e
p2330
aV15cedeb5300e9f50
p2331
aV15cedbcb2ce0cb84
p2332
aV15cedb8123c9857f
p2333
aV15cedb7499925d15
p2334
aV15cedaafeaceca23
p2335
aV15ced35106b7c344
p2336
aV15cecc2e174a8abf
p2337
aV15cecbaf19610769
p2338
aV15ceca9d9f644ea0
p2339
aV15cec9a4293a0c51
p2340
aV15cec79c5a5d0bb4
p2341
aV15cec74749942259
p2342
aV15cec73b75247783
p2343
aV15cec7354816dc4a
p2344
aV15cec697a4f992db
p2345
aV15cec6112bb46e37
p2346
aV15cec4e947a4c1c9
p2347
asS'10/14/2017'
p2348
(lp2349
V15f190a11c4ab3ac
p2350
aV15f190a0d0a0e85f
p2351
asS'04/09/2017'
p2352
(lp2353
V15b542fbd118a0cc
p2354
aV15b53935013650e0
p2355
aV15b533b0ebafa630
p2356
asS'11/28/2017'
p2357
(lp2358
V16004ebdda0dc637
p2359
aV16004c7379f6ad49
p2360
aV16001af8ecfd56f3
p2361
aV16000ff2d6fe26c7
p2362
aV16000ff2a179563b
p2363
asS'11/19/2017'
p2364
(lp2365
V15fd2a5ee248609f
p2366
aV15fd2a5e92a118e8
p2367
asS'10/28/2017'
p2368
(lp2369
V15f64f4ca4e5e162
p2370
aV15f63dda628e7b54
p2371
aV15f613e197dd0206
p2372
aV15f61231ac728d50
p2373
aV15f6123180879945
p2374
aV15f60fec60bb6a3f
p2375
aV15f60ef50db53bc0
p2376
asS'01/23/2018'
p2377
(lp2378
V1612438c16b9dcb9
p2379
aV16123ddc8cca5794
p2380
aV16123d73aa05daf4
p2381
asS'05/20/2017'
p2382
(lp2383
V15c27656e4b244df
p2384
aV15c273a31bb0eaef
p2385
aV15c273605c8d9577
p2386
aV15c26328cd8aa82e
p2387
aV15c25f02abdbeb5d
p2388
aV15c25e9e41b3cf7b
p2389
aV15c244d16645f0fd
p2390
aV15c23fd14a1b708e
p2391
aV15c23d9cdd5310d0
p2392
asS'04/21/2017'
p2393
(lp2394
sS'08/13/2017'
p2395
(lp2396
V15ddd9c85eecb1dd
p2397
aV15ddd9ad7111e445
p2398
aV15ddd7dfef860a78
p2399
aV15ddd7de5e5c3fd8
p2400
aV15ddce5ea30133f7
p2401
aV15ddcbd1f7bac116
p2402
aV15ddbef4a50e0c68
p2403
aV15ddbc3d625cbe08
p2404
aV15ddbad7d2ddf81e
p2405
aV15ddbac60272feef
p2406
aV15dd9bfd6a13b533
p2407
aV15dd9bfc28cb487f
p2408
asS'11/12/2017'
p2409
(lp2410
V15fb255e949180a1
p2411
aV15fae99706c01482
p2412
aV15fae996ead7e253
p2413
asS'08/16/2017'
p2414
(lp2415
V15decff36fe9756c
p2416
aV15debe60596bf149
p2417
aV15debe10923806a6
p2418
aV15deb9be57e21d1c
p2419
aV15deab8e5585fe34
p2420
aV15dea0bbcc03f7cc
p2421
aV15de932da5e6e5c2
p2422
aV15de932da2aa1c10
p2423
asS'05/11/2017'
p2424
(lp2425
V15bf9babf1913052
p2426
aV15bf8d509fecc3d3
p2427
aV15bf8bd8586b133d
p2428
aV15bf8637ed5b0a84
p2429
aV15bf803272310dd5
p2430
aV15bf560299929a73
p2431
aV15bf50ca7816c9f0
p2432
aV15bf4f1667d0713d
p2433
aV15bf4ee175363616
p2434
asS'10/07/2017'
p2435
(lp2436
V15ef4fd8ca73e278
p2437
aV15ef4fd8b398af5b
p2438
asS'03/16/2017'
p2439
(lp2440
V15ad939f00456499
p2441
aV15ad939ed3a871a3
p2442
aV15ad939eba7777f6
p2443
aV15ad939e1902c98d
p2444
aV15ad939d46ecbebd
p2445
aV15ad939cd66df1f5
p2446
aV15ad9399e741f9ec
p2447
aV15ad8d22e4e0e161
p2448
aV15ad81de4a72196d
p2449
aV15ad48b65d3d30b5
p2450
asS'08/24/2017'
p2451
(lp2452
V15e1673aa402a310
p2453
aV15e16733c24465ca
p2454
aV15e166c8f86405cd
p2455
aV15e15879eda7295c
p2456
aV15e14e6012c60a71
p2457
aV15e148ac86e20667
p2458
aV15e1488e22fa8241
p2459
aV15e1487d2d8866ac
p2460
aV15e1265bfb06547f
p2461
aV15e1265bdc173d54
p2462
asS'09/03/2017'
p2463
(lp2464
V15e49a390f602b9b
p2465
aV15e498d8ec375da8
p2466
aV15e4906502b56fd6
p2467
aV15e45e59de91bec7
p2468
aV15e45e552d139b5c
p2469
asS'09/28/2017'
p2470
(lp2471
V15eca2f6c49aeb7f
p2472
aV15ec92560abbef92
p2473
aV15ec924d6c250e86
p2474
aV15ec923a9dbdc1af
p2475
aV15ec91a55a381733
p2476
aV15ec737a0d1b80c5
p2477
aV15ec6a44de98ed2e
p2478
aV15ec6a44b3974263
p2479
aV15ec623834b266c4
p2480
asS'07/17/2017'
p2481
(lp2482
V15d52a190147706a
p2483
aV15d527cf4ad3d490
p2484
aV15d51958862f2d0a
p2485
aV15d518ae230b8b8c
p2486
aV15d518255ef3e0c8
p2487
aV15d512e84299a273
p2488
aV15d510c4136fcfdc
p2489
aV15d507df3c811e81
p2490
aV15d4fb26aae4930c
p2491
aV15d4fb262302fb2f
p2492
aV15d4fb25fdb2a38d
p2493
aV15d4fb25fbd16cae
p2494
aV15d4f41b2408e89f
p2495
aV15d4eb41ee26ccad
p2496
aV15d4eb40a7e21619
p2497
aV15d4e4841a591001
p2498
asS'11/15/2017'
p2499
(lp2500
V15fbe0c8580b8b3d
p2501
aV15fbe0c818fcaee1
p2502
asS'01/07/2018'
p2503
(lp2504
V160d2d201460591e
p2505
aV160d2be25e4d9801
p2506
aV160d2bcc610fe9bd
p2507
aV160d1dde68c1687a
p2508
aV160d1b67f8a1714b
p2509
aV160d1afcd391575f
p2510
aV160cf705645525f7
p2511
aV160cefd8bae52784
p2512
aV160cefd8b8bb2d18
p2513
aV160ce04ea178c212
p2514
asS'03/03/2017'
p2515
(lp2516
V15a95bf1b49a3b65
p2517
aV15a955301e58bd21
p2518
aV15a95416c2d7ff3d
p2519
aV15a953e529ec8b85
p2520
aV15a94a0e2dc57496
p2521
asS'05/14/2017'
p2522
(lp2523
sS'06/26/2017'
p2524
(lp2525
V15ce695365cedffc
p2526
aV15ce68a1d1a3537f
p2527
aV15ce68770c652d11
p2528
aV15ce67d46e9d43c5
p2529
aV15ce640268c54cbb
p2530
aV15ce61ee5358a418
p2531
aV15ce59e62700fcda
p2532
aV15ce36b694e6b09b
p2533
aV15ce3567c934693a
p2534
aV15ce33bccf309146
p2535
aV15ce33aacacfdacf
p2536
asS'01/26/2018'
p2537
(lp2538
V1613328505b6b68e
p2539
aV16130af99de1f937
p2540
asS'07/27/2017'
p2541
(lp2542
V15d8663b3e37cab4
p2543
aV15d865433d3c91f2
p2544
aV15d86540397ae9ca
p2545
aV15d86476b7c221ea
p2546
aV15d861d89c3923e5
p2547
aV15d8615a6c903517
p2548
aV15d84dd6cafd8e5e
p2549
aV15d84dd0fc6ea1b1
p2550
aV15d847bf95d89f43
p2551
aV15d83ec08ea7bcc7
p2552
aV15d83b34fb5d6a17
p2553
aV15d83739fefa5dac
p2554
aV15d826f8306da443
p2555
aV15d8266559181069
p2556
asS'11/17/2017'
p2557
(lp2558
V15fcb8d311efc973
p2559
aV15fcb19639d6d7e6
p2560
aV15fcb17f63b01f40
p2561
aV15fcb0b6d41632ce
p2562
aV15fca5a48b824334
p2563
aV15fc8594555a8273
p2564
aV15fc85937fd18003
p2565
aV15fc7ca0a7181cc3
p2566
asS'07/30/2017'
p2567
(lp2568
V15d9586168eb27cb
p2569
aV15d9582463ab6483
p2570
aV15d94076cc11f165
p2571
aV15d92c7acf5ca648
p2572
aV15d92792ab8bac84
p2573
aV15d925274ac8a2ec
p2574
aV15d91e557c113668
p2575
aV15d91e4928b413ed
p2576
aV15d91dc3c9c26860
p2577
aV15d91c42b021069a
p2578
aV15d91a6ca36bf47f
p2579
aV15d91a6babd88d15
p2580
asS'05/17/2017'
p2581
(lp2582
V15c17a3dc1b04dea
p2583
aV15c1738fd2eae2f6
p2584
aV15c1735b554a4baf
p2585
aV15c172cf5bf6a223
p2586
aV15c14428553f2b19
p2587
aV15c14382cc149e2b
p2588
aV15c14339af63b3e5
p2589
aV15c142fc2f778544
p2590
aV15c141ea3310b597
p2591
aV15c141a6b67dec8b
p2592
aV15c1416a2b2fd9ff
p2593
asS'06/07/2017'
p2594
(lp2595
V15c84bf1fdf1431e
p2596
aV15c84badc3ad11c5
p2597
aV15c84068e9181a69
p2598
aV15c83bab9651b2b5
p2599
aV15c83b4f816a8c24
p2600
aV15c83a500098cdb5
p2601
aV15c83874e8742b31
p2602
aV15c835c840070ec8
p2603
aV15c8353354973100
p2604
aV15c8353182ced103
p2605
aV15c833dd019a7247
p2606
aV15c83052c9be991c
p2607
aV15c82fd77f5c8568
p2608
asS'01/05/2018'
p2609
(lp2610
V160c8a2b5d191df6
p2611
aV160c73aba424398c
p2612
aV160c5f2332b3d33b
p2613
aV160c4b0d37c68837
p2614
aV160c4b0d2a219eb5
p2615
aV160c4741acda3159
p2616
aV160c47264b09fe89
p2617
aV160c44f83c0af8cb
p2618
aV160c443116985c23
p2619
aV160c43f6689f6e52
p2620
aV160c41f7688e5100
p2621
aV160c41b6cb11466d
p2622
asS'01/20/2018'
p2623
(lp2624
V16115a504c078c80
p2625
aV16113efdb89a67e3
p2626
aV16111f03cf4dcb18
p2627
aV16111f037167d9d1
p2628
asS'05/09/2017'
p2629
(lp2630
V15befa63080c98bd
p2631
aV15befa2774a5341d
p2632
aV15bef8d08925a8bc
p2633
aV15bef40b115a6f06
p2634
aV15beea295ea679b1
p2635
aV15bee83da0f583f7
p2636
aV15bee6b72cf71d70
p2637
aV15bee68f2da9b6c7
p2638
aV15bedccac1f040d4
p2639
aV15bedca2845e8ed8
p2640
aV15bed9694456c1e8
p2641
aV15bed375e104e6e5
p2642
aV15bec858467d5b23
p2643
aV15bec2a679244467
p2644
aV15bebc5737c0a8fa
p2645
aV15bebb07bca625f4
p2646
aV15bebaf407f28cfa
p2647
aV15beb8fa4f0b5bcd
p2648
aV15beb80d10003770
p2649
aV15beb52de46ad6a6
p2650
aV15beaa8358715bf0
p2651
asS'10/18/2017'
p2652
(lp2653
V15f31541075fb8ae
p2654
aV15f312b8895a3919
p2655
aV15f2da39c90316ae
p2656
aV15f2da3811a8e98e
p2657
asS'04/18/2017'
p2658
(lp2659
V15b81fb7dc0a4170
p2660
aV15b7ff5cae9e9fae
p2661
aV15b7fc7e3060e4b2
p2662
aV15b7f53011054eb3
p2663
aV15b7ee497c8213fa
p2664
aV15b7ee46dcb8fe03
p2665
asS'08/27/2017'
p2666
(lp2667
V15e2573085040dff
p2668
aV15e256f537012d12
p2669
aV15e248faf0e35796
p2670
aV15e23ff4acff8662
p2671
aV15e21d8d40dcc569
p2672
aV15e21d8cd17fee6e
p2673
asS'03/12/2017'
p2674
(lp2675
V15ac348f73a92a5f
p2676
asS'03/28/2017'
p2677
(lp2678
V15b167908a02f426
p2679
aV15b13836d158bdc6
p2680
aV15b13396adc06468
p2681
asS'02/21/2018'
p2682
(lp2683
V161b6c3a6b640ae1
p2684
aV161b6c2bc6aed8a2
p2685
asS'05/30/2017'
p2686
(lp2687
V15c5aeccbdb9befc
p2688
aV15c59f67f224c547
p2689
aV15c599c80ad8ff80
p2690
aV15c5959a6fe53db1
p2691
asS'05/08/2017'
p2692
(lp2693
V15be9ea95982aee7
p2694
aV15be980cd9070ef6
p2695
aV15be97d32cc7188a
p2696
aV15be97c4b541966c
p2697
aV15be97b3390103b5
p2698
aV15be978b5c60df3a
p2699
aV15be883b1acb10c1
p2700
aV15be86bd765392ce
p2701
aV15be68e94f31917c
p2702
asS'06/14/2017'
p2703
(lp2704
V15ca851064207a9f
p2705
aV15ca84e0c5134a72
p2706
aV15ca81fe8313620b
p2707
aV15ca7f64073a39b1
p2708
aV15ca7a03bb86afeb
p2709
aV15ca7869d72d1ba8
p2710
aV15ca7262d7580861
p2711
aV15ca724c0f14e205
p2712
aV15ca719f46330e4d
p2713
aV15ca6d96d8197693
p2714
aV15ca6bd05c8624d4
p2715
aV15ca6b4231475b59
p2716
aV15ca4e1559cea196
p2717
aV15ca3ea27ceee192
p2718
asS'12/30/2017'
p2719
(lp2720
V160a8bc580715e2b
p2721
aV160a7f44ad82620e
p2722
aV160a71c0a032bb91
p2723
aV160a5caab628b30c
p2724
aV160a5caaa38ece6d
p2725
asS'12/06/2017'
p2726
(lp2727
V1602ac84c4210581
p2728
aV1602ac5489ec2065
p2729
asS'03/11/2017'
p2730
(lp2731
sS'02/11/2018'
p2732
(lp2733
V16186beb70d39580
p2734
aV161863f64ed577d3
p2735
aV161862d7ed123177
p2736
aV16186244508bdfd5
p2737
aV16184a63407bac79
p2738
asS'08/19/2017'
p2739
(lp2740
V15dfb5cc1889825b
p2741
aV15df8a5eb558e513
p2742
aV15df8a5ea4fa9a70
p2743
asS'07/24/2017'
p2744
(lp2745
V15d7703e9f51932d
p2746
aV15d76ebab5f81cce
p2747
aV15d76672597e9248
p2748
aV15d75f6f311a46d9
p2749
aV15d75f5ba732432d
p2750
aV15d75640ea2a5185
p2751
aV15d72c0b8b944f72
p2752
aV15d72c0921c9ebb2
p2753
asS'03/17/2017'
p2754
(lp2755
V15addf563ddbc090
p2756
aV15add724c6e89fdd
p2757
aV15add6ed261c8b47
p2758
aV15add68bc1d12088
p2759
aV15add45905e40af8
p2760
aV15add15314c0922c
p2761
aV15adcf931b5a5b6c
p2762
aV15adca0a8b391bc6
p2763
asS'04/01/2017'
p2764
(lp2765
V15b2b6d811d0f816
p2766
aV15b2ac58b9d94819
p2767
aV15b2a74e64074d0c
p2768
aV15b2a6e8c5e4ad6e
p2769
aV15b2a5e9da33d35f
p2770
asS'05/18/2017'
p2771
(lp2772
V15c1d5b6884db11c
p2773
aV15c1c9eeea8a4259
p2774
aV15c1c941eb0350b9
p2775
aV15c1c5229afdcce4
p2776
aV15c1c019158f2668
p2777
aV15c1bd859849264c
p2778
aV15c1bcb9f19909a3
p2779
aV15c1b8c34f46d117
p2780
asS'05/31/2017'
p2781
(lp2782
V15c605885df3d032
p2783
aV15c6049663b735ed
p2784
aV15c5fc06e806b072
p2785
aV15c5fbef5cf02eea
p2786
aV15c5fbe1a8210397
p2787
aV15c5fb4aa5a175e2
p2788
aV15c5ebb714b8682d
p2789
aV15c5e8050e5f469c
p2790
aV15c5cf80e7dc7a61
p2791
aV15c5cea9aa386418
p2792
aV15c5ce90307d67ab
p2793
asS'04/27/2017'
p2794
(lp2795
sS'03/14/2017'
p2796
(lp2797
V15acede4e99058ae
p2798
aV15acedae0b043232
p2799
aV15aced21d1b21316
p2800
aV15acecfed45843c0
p2801
aV15acecc89ca9b769
p2802
aV15acda10446c8070
p2803
aV15acd543f8529f6d
p2804
aV15accd99f326bff8
p2805
aV15acbe61371da59f
p2806
aV15acbc253dfec0c5
p2807
asS'03/31/2017'
p2808
(lp2809
V15b226fb5b65d881
p2810
asS'02/28/2017'
p2811
(lp2812
V15a861e2b25ba425
p2813
aV15a861c20a5ce7ac
p2814
asS'12/10/2017'
p2815
(lp2816
V1603fce4020339d1
p2817
aV1603f7ac44ff82e7
p2818
asS'02/19/2018'
p2819
(lp2820
V161b03ffe1589848
p2821
aV161b03adb0b7156e
p2822
aV161af4ba2d815e08
p2823
asS'06/13/2017'
p2824
(lp2825
V15ca3e205d872bf0
p2826
aV15ca35c7a040fa32
p2827
aV15ca32ab4d742a58
p2828
aV15ca2eb125efe175
p2829
aV15ca2e1fca2560d9
p2830
aV15ca2dd83d3e55e8
p2831
aV15ca2d254be3bba8
p2832
aV15ca2b3de7a2753c
p2833
aV15ca290e540bb728
p2834
aV15ca28b82d32c995
p2835
aV15ca26b91d4c73db
p2836
aV15ca265573ecb848
p2837
aV15ca261584425500
p2838
aV15ca23eb68433d82
p2839
aV15ca23dc131eb274
p2840
aV15ca1f630290c72a
p2841
aV15ca1f260218f10e
p2842
aV15ca02594d8801c7
p2843
aV15ca0249711a8b9b
p2844
aV15ca02156973efb8
p2845
aV15ca0166f3f9760c
p2846
asS'06/23/2017'
p2847
(lp2848
V15cd5d27a019e846
p2849
aV15cd5afb2262ef2d
p2850
aV15cd5a17d2cd7259
p2851
aV15cd59ee2eed86b9
p2852
aV15cd586ed595bc05
p2853
aV15cd58496b0deca9
p2854
aV15cd58064da2f9f3
p2855
aV15cd57517b381090
p2856
aV15cd473b2e30bc17
p2857
aV15cd2e06d6b89017
p2858
asS'05/01/2017'
p2859
(lp2860
V15bc5015e805c7b0
p2861
aV15bc32f215c23129
p2862
aV15bc32a8433da949
p2863
aV15bc2de97bde3c73
p2864
aV15bc23cf5b70eeb9
p2865
aV15bc1c018b057e84
p2866
asS'02/12/2018'
p2867
(lp2868
V1618b2cd8e7a5425
p2869
aV1618ad3d6825cc47
p2870
aV1618a7b86252c66b
p2871
aV1618894ddcdb01f8
p2872
aV161882372660ccf5
p2873
aV16187738cd158a80
p2874
asS'10/30/2017'
p2875
(lp2876
V15f6f9a93e47f2dc
p2877
aV15f6edc77bf60267
p2878
aV15f6d80526e4c68f
p2879
aV15f6c2e036eac520
p2880
aV15f6b6fd12c74893
p2881
aV15f6b6fd06cd9335
p2882
asS'11/25/2017'
p2883
(lp2884
V15ff2c169a7e7589
p2885
aV15ff18c19d48d4fa
p2886
aV15ff18c18eb7cd80
p2887
asS'04/04/2017'
p2888
(lp2889
V15b3773d511cd4f5
p2890
aV15b376a38e0c5854
p2891
aV15b37599c464c90b
p2892
aV15b36ea75165870b
p2893
asS'09/20/2017'
p2894
(lp2895
V15ea1b9b5c5f8105
p2896
aV15e9fda3238bf50c
p2897
aV15e9d7171c68a40f
p2898
aV15e9d716de6e899d
p2899
asS'03/01/2017'
p2900
(lp2901
V15a8c01737e14b07
p2902
aV15a8b1aca4cf1c10
p2903
aV15a8aff26faa98db
p2904
aV15a8af9938be8565
p2905
aV15a876404d6cd865
p2906
asS'04/20/2017'
p2907
(lp2908
sS'12/18/2017'
p2909
(lp2910
V1606b8548ee295f0
p2911
aV160688e0e3a73b64
p2912
asS'11/26/2017'
p2913
(lp2914
V15ffabe7367aa936
p2915
aV15ff6b2774914d78
p2916
aV15ff6b27545c4555
p2917
asS'08/12/2017'
p2918
(lp2919
V15dd8762aeccf564
p2920
aV15dd4996ddc22184
p2921
aV15dd4996a47c80a1
p2922
asS'09/08/2017'
p2923
(lp2924
V15e6382d667b6aa9
p2925
aV15e633235313648e
p2926
aV15e62f22a0daacce
p2927
aV15e62b23c86edca8
p2928
aV15e61e205655eeca
p2929
aV15e5fe5e531c2b42
p2930
aV15e5fdf1b50c7d9e
p2931
aV15e5fa51dc7e1ba8
p2932
aV15e5fa51cc2b8626
p2933
asS'04/29/2017'
p2934
(lp2935
V15bba130b1ad4edf
p2936
aV15bb74249310b91b
p2937
asS'02/15/2018'
p2938
(lp2939
V1619a79614e87545
p2940
aV1619a4ad3c8f1e6c
p2941
aV16198ee33411fb91
p2942
aV161987e2391ee432
p2943
asS'12/13/2017'
p2944
(lp2945
sS'10/25/2017'
p2946
(lp2947
V15f54df87cebd8ca
p2948
aV15f54aa6df348de7
p2949
aV15f549f3714f44af
p2950
aV15f5293e70668e2e
p2951
aV15f51b00b67e7cec
p2952
aV15f51b00230fcc81
p2953
asS'05/19/2017'
p2954
(lp2955
V15c22ba55e437518
p2956
aV15c226bd7235c666
p2957
aV15c20c41865b3540
p2958
aV15c1f22ee05da227
p2959
aV15c1eff148df22f8
p2960
aV15c1eed2408068b8
p2961
aV15c1e812e21823ea
p2962
aV15c1e19d63519ba1
p2963
aV15c1e19acb61356f
p2964
asS'11/09/2017'
p2965
(lp2966
V15fa308509f5179e
p2967
aV15fa1a06dbbee6a5
p2968
aV15fa135fc7fdbccc
p2969
aV15f9f265a82370e1
p2970
aV15f9f2659824d1e4
p2971
aV15f9e39a964e8788
p2972
asS'08/23/2017'
p2973
(lp2974
V15e10cd92d9bf71f
p2975
aV15e10a0ee4b24399
p2976
aV15e108dcc32c9e84
p2977
aV15e104c99d47302a
p2978
aV15e0d3f79e6d297d
p2979
aV15e0d3f6593945bd
p2980
asS'08/08/2017'
p2981
(lp2982
V15dc3e8b1592911d
p2983
aV15dc3cd99f8313ff
p2984
aV15dc39f9e601885d
p2985
aV15dc325637fc356a
p2986
aV15dc2bbabd8a680a
p2987
aV15dc2b942151a867
p2988
aV15dc24dd549a3940
p2989
aV15dc0004199d943e
p2990
aV15dbffffcc1a41eb
p2991
aV15dbf8fc97b7214f
p2992
asS'09/29/2017'
p2993
(lp2994
V15ecfb99eb466c58
p2995
aV15eced21744ff643
p2996
aV15ecbcaad255e97e
p2997
aV15ecbcaac29c4d33
p2998
asS'09/25/2017'
p2999
(lp3000
V15eba51933f51b1c
p3001
aV15eb942dc7d5eff5
p3002
aV15eb73138c49c3e9
p3003
aV15eb7313756e9844
p3004
aV15eb6c878aad10af
p3005
asS'10/06/2017'
p3006
(lp3007
V15ef3c02797a6229
p3008
aV15ef32f13def7f2b
p3009
aV15ef279991ecd8da
p3010
aV15ef2744007a8a5a
p3011
aV15eefd72f918183e
p3012
aV15eefd72f244ba97
p3013
asS'11/07/2017'
p3014
(lp3015
V15f9897b1773201c
p3016
aV15f9896a2d3dc835
p3017
aV15f989577c8df2f8
p3018
aV15f9893f99a4b93a
p3019
aV15f98937508b8c37
p3020
aV15f988c1c0363576
p3021
aV15f987decf629406
p3022
aV15f984c2b9fc361b
p3023
aV15f9834ba36da8f4
p3024
aV15f97f8b6f428de5
p3025
aV15f97d76c2a76d31
p3026
aV15f97ca6a3f5f18a
p3027
aV15f96ed3040d1479
p3028
aV15f961db0c61266c
p3029
aV15f95c66036fe987
p3030
aV15f95a8b960679a9
p3031
aV15f959d927329a5e
p3032
aV15f959c6b7e9c876
p3033
aV15f951bd5653eb16
p3034
aV15f94d9a5e6360a5
p3035
aV15f94d99d816c02e
p3036
asS'08/25/2017'
p3037
(lp3038
V15e1b711e193baa2
p3039
aV15e1b0119c5d1f1d
p3040
aV15e1ae560a1f8640
p3041
aV15e1ace6550c0dfd
p3042
aV15e1a4f125f947d9
p3043
aV15e1a333a4dd99a5
p3044
aV15e19b08459f8c6a
p3045
aV15e183d84ae44485
p3046
aV15e178c1ef62b5e1
p3047
aV15e178c1a92b7f57
p3048
aV15e1776616496a02
p3049
asS'12/14/2017'
p3050
(lp3051
sS'11/06/2017'
p3052
(lp3053
V15f93274142b8e2a
p3054
aV15f92685dbb4d2e9
p3055
aV15f9268067db0149
p3056
aV15f92589e74891e5
p3057
aV15f9229c07d6dc4c
p3058
aV15f91c514e07621d
p3059
aV15f90bdf42776da4
p3060
aV15f900c6e2df7592
p3061
aV15f900b340b48995
p3062
aV15f8ff2281e5c549
p3063
aV15f8fb39609f2f61
p3064
aV15f8fb38ea663f0f
p3065
asS'08/15/2017'
p3066
(lp3067
V15de81f44dc2f0f7
p3068
aV15de7feb6d3e3b1b
p3069
aV15de7e9f6a8bf4fe
p3070
aV15de7de6faed6f9f
p3071
aV15de7d7373bb4726
p3072
aV15de7a8732adab5c
p3073
aV15de7766f9831393
p3074
aV15de74271da6d5c1
p3075
aV15de69f592f829cf
p3076
aV15de69e0f53a994a
p3077
aV15de5ef6f506ce4f
p3078
aV15de40c810d391f9
p3079
aV15de40c7f77eb436
p3080
asS'09/12/2017'
p3081
(lp3082
V15e76d7fe82f72b7
p3083
aV15e769082cc97242
p3084
aV15e751106ac0aa3a
p3085
aV15e743e8f67114eb
p3086
aV15e743e8f4b7fd37
p3087
asS'12/31/2017'
p3088
(lp3089
V160ae473b2d232b2
p3090
aV160ad4f278a7c7af
p3091
aV160aaf1031d5cc2c
p3092
aV160aaf1005b56bf6
p3093
asS'06/06/2017'
p3094
(lp3095
V15c7ea07209e409a
p3096
aV15c7e8ab4fc2e37f
p3097
aV15c7dd436d760fbe
p3098
aV15c7dc60f7179c6b
p3099
aV15c7bfb9565a5c7f
p3100
asS'12/16/2017'
p3101
(lp3102
V160613e8f9650d04
p3103
aV16060a740f5da31a
p3104
aV1606098a292563c8
p3105
aV1605cca9f7f50cf0
p3106
aV1605ca5ed69d638d
p3107
asS'07/29/2017'
p3108
(lp3109
V15d90a06583a6e7d
p3110
aV15d9069b6725957f
p3111
aV15d8f0063e14e7e8
p3112
aV15d8ed03112c56cd
p3113
aV15d8eca822d6774c
p3114
aV15d8ea9b8e7495bc
p3115
aV15d8ea86ea80ebed
p3116
aV15d8ea4e5d9ea462
p3117
aV15d8ea49d7e2da22
p3118
aV15d8ea4001f1ba96
p3119
aV15d8e5fd328c864c
p3120
aV15d8e080bee700b7
p3121
aV15d8dd0c4ecf5d60
p3122
aV15d8dd0a1fc252c8
p3123
aV15d8d86565f7235e
p3124
aV15d8d85a1aa48584
p3125
aV15d8c80973660240
p3126
aV15d8c805fdd9706d
p3127
aV15d8be8b2bc4845b
p3128
aV15d8ba7ab83d538a
p3129
asS'11/23/2017'
p3130
(lp3131
V15feb449924643cc
p3132
aV15fead70377e35d3
p3133
aV15fe73f638f0c12c
p3134
aV15fe73f6373c4117
p3135
asS'08/21/2017'
p3136
(lp3137
V15e073833deda27c
p3138
aV15e04c237e72f8e3
p3139
aV15e04bdaccb30cd3
p3140
aV15e03e9a19713ad6
p3141
aV15e02f2adbf678a7
p3142
aV15e02f2a8fe24c4b
p3143
asS'05/10/2017'
p3144
(lp3145
V15bf42958cdbea5e
p3146
aV15bf3d053a3bce46
p3147
aV15bf3ad91f247f21
p3148
aV15bf3a9f390ff794
p3149
aV15bf39b2055b1209
p3150
aV15bf3984249fd815
p3151
aV15bf39280800b895
p3152
aV15bf38caaae091c9
p3153
aV15bf382379aebb2a
p3154
aV15bf2fe8fc9cc93d
p3155
aV15bf2ea029c2d1af
p3156
aV15bf2e2ff5937293
p3157
aV15bf2e23c9f5b119
p3158
aV15bf23c26460421d
p3159
aV15bf12bc18f8af26
p3160
aV15bf0437eff80042
p3161
aV15bf00070887387b
p3162
asS'09/19/2017'
p3163
(lp3164
V15e9bbaa47e17743
p3165
aV15e9bb795d1eb2e0
p3166
aV15e9b9ca1071ab3c
p3167
aV15e9a8c237bd8bcd
p3168
aV15e99d4b461cc6df
p3169
aV15e984b1424d8645
p3170
aV15e984b132dc3dc9
p3171
aV15e9842caa6e3c9f
p3172
aV15e983e104be79a1
p3173
aV15e97d71692a17ed
p3174
aV15e97cf7666f1c44
p3175
asS'08/26/2017'
p3176
(lp3177
V15e20dc8d996bd9a
p3178
aV15e20d5a81699766
p3179
aV15e20346f4bfd0e2
p3180
aV15e2000c323109a4
p3181
aV15e1fff59f69071c
p3182
aV15e1f6150f62bffc
p3183
aV15e1f5e905c100e4
p3184
aV15e1f189d9002e94
p3185
aV15e1d30510c1c333
p3186
aV15e1d12905a0f090
p3187
aV15e1cd8ff255a50e
p3188
aV15e1cd5bf503d903
p3189
aV15e1cb30077e351f
p3190
aV15e1cb2ecfbff241
p3191
aV15e1cb27fb680ab9
p3192
aV15e1cb275db886ec
p3193
aV15e1cacebd1ccd3a
p3194
aV15e1c346629bfa85
p3195
asS'07/13/2017'
p3196
(lp3197
V15d3e3644693212d
p3198
aV15d3d15d35a61dd1
p3199
aV15d3ca54a646a1c7
p3200
aV15d3ca413a7cca81
p3201
aV15d3ca217d5ce0e0
p3202
aV15d3c5d7b0b9b186
p3203
aV15d3c4b144152f0b
p3204
aV15d3c4538e396b92
p3205
aV15d3c43347005116
p3206
aV15d3bd9b91f136a8
p3207
aV15d3bcf9aba874e6
p3208
aV15d3b1b356fbf179
p3209
aV15d3a1aa4bd5c14a
p3210
aV15d3a1a995f5c988
p3211
aV15d39f9d43ed981a
p3212
aV15d39885591b6d13
p3213
aV15d3943eca3b23b4
p3214
asS'08/14/2017'
p3215
(lp3216
V15de32bef6940be5
p3217
aV15de2c992a706e5b
p3218
aV15de2c8ef5c703c9
p3219
aV15de2c2e4a2cbb7d
p3220
aV15de2b3a7bd7e113
p3221
aV15de2a56b1e46c3c
p3222
aV15de2a55100c7deb
p3223
aV15de29e5c0c250f5
p3224
aV15de28d261280de5
p3225
aV15de28a8edb5937b
p3226
aV15de2894d9344811
p3227
aV15de0cef5b4d2551
p3228
aV15de0c4a68c47767
p3229
aV15de0249e04b2b86
p3230
aV15de01aa1d94f578
p3231
aV15de0193e1bb9199
p3232
aV15de00a7d06ff0a9
p3233
aV15ddfecba643ec43
p3234
aV15ddfdcad906ee97
p3235
aV15ddf843fc6545c8
p3236
aV15ddee621b1584aa
p3237
aV15ddee61eecd5b54
p3238
asS'09/05/2017'
p3239
(lp3240
V15e5478903eaf2cf
p3241
aV15e53a7b4673fc5a
p3242
aV15e53a7ae11d0ebf
p3243
aV15e5384b2ad656fa
p3244
aV15e5363746a8fd6b
p3245
aV15e5329f49906eba
p3246
aV15e52d7d0647d88a
p3247
aV15e52d734534e4b7
p3248
aV15e52d68ac512bf5
p3249
aV15e52d450f6d50f5
p3250
aV15e52a977a256900
p3251
aV15e50320c60b6261
p3252
aV15e5032091e0304c
p3253
aV15e4fd3767bf8285
p3254
aV15e4fce6e3948214
p3255
asS'07/22/2017'
p3256
(lp3257
V15d690e291f55145
p3258
aV15d6873f7be07e89
p3259
aV15d6873deb764bfb
p3260
aV15d681cf52771edf
p3261
asS'10/19/2017'
p3262
(lp3263
V15f36d1809fbb64c
p3264
aV15f363fb01601030
p3265
aV15f363f0a0366649
p3266
aV15f362fb706e02ca
p3267
aV15f32ca96ee79030
p3268
aV15f32c9dcd966a45
p3269
asS'02/17/2018'
p3270
(lp3271
V161a56dcd5325f72
p3272
aV161a23e3b21ee62f
p3273
asS'11/14/2017'
p3274
(lp3275
V15fb8e6273a57b38
p3276
aV15fb8e620a5b0e91
p3277
asS'09/21/2017'
p3278
(lp3279
V15ea68c2bf0cf382
p3280
aV15ea62ecdb19e014
p3281
aV15ea62e8a212474b
p3282
aV15ea62a896b61e58
p3283
aV15ea62a3f4762d6a
p3284
aV15ea6294a90dc35e
p3285
aV15ea62888cb2773f
p3286
aV15ea62573f5bc095
p3287
aV15ea624096742ff4
p3288
aV15ea622315e8b697
p3289
aV15ea6218459234dc
p3290
aV15ea62030ad0af20
p3291
aV15ea297ca584520d
p3292
aV15ea297ca10f83f9
p3293
aV15ea2221050efd82
p3294
aV15ea221ecb05d807
p3295
asS'04/03/2017'
p3296
(lp3297
V15b3441dd106cb4f
p3298
aV15b313708e8ebc11
p3299
asS'01/06/2018'
p3300
(lp3301
V160cd07bcce4392c
p3302
aV160cd068cc1d8941
p3303
aV160cce96e74bf174
p3304
aV160ccd1e674b6d1f
p3305
aV160cc7019a612e54
p3306
aV160cb3ee070e153d
p3307
aV160cae524f17eafa
p3308
aV160c9d732c126da2
p3309
aV160c9d72b7fba145
p3310
asS'01/30/2018'
p3311
(lp3312
V161495283cd03b74
p3313
aV1614943b584edd83
p3314
aV16149226a357cf75
p3315
aV16148a2910d4047e
p3316
aV161469705ddd341c
p3317
aV161459a5d2c6250c
p3318
aV1614599f7ce6d1bc
p3319
aV161459016f4a0ae5
p3320
asS'07/10/2017'
p3321
(lp3322
V15d2ebffc69b9f35
p3323
aV15d2e9f8595c9308
p3324
aV15d2e9257f55cc11
p3325
aV15d2e573df813049
p3326
aV15d2e1adc631db16
p3327
aV15d2daffe92e080f
p3328
aV15d2dafdd8edeca0
p3329
aV15d2da24a9e91084
p3330
aV15d2d32197ab9392
p3331
aV15d2d27763dc89df
p3332
aV15d2cf780accf75a
p3333
aV15d2ce94e941ff97
p3334
aV15d2cae59901f70b
p3335
aV15d2afe1006f6f4d
p3336
aV15d2af24882497e2
p3337
aV15d2af008ee3f313
p3338
aV15d2aefee118f52f
p3339
aV15d2aa7ce3bcab73
p3340
aV15d2aa78da7aa685
p3341
aV15d2a29f1e33689b
p3342
aV15d2a27396f688c5
p3343
aV15d2a1e6b7653c84
p3344
asS'04/05/2017'
p3345
(lp3346
V15b3fd8c6a184492
p3347
aV15b3f6afe09f6827
p3348
aV15b3eade5d7c53cf
p3349
aV15b3e9ef1a851292
p3350
aV15b3e9b94547922c
p3351
aV15b3c7ea35d17ee2
p3352
asS'08/04/2017'
p3353
(lp3354
V15dae882d8bb5892
p3355
aV15dae825e1e59cca
p3356
aV15dadcce8555f55e
p3357
aV15dab66b36b62bac
p3358
aV15dab669abf8fdf4
p3359
aV15dab209bafe69f8
p3360
asS'04/06/2017'
p3361
(lp3362
V15b458f91b2a3a7f
p3363
aV15b44f7fe2f437dc
p3364
aV15b44b2e5ab2f596
p3365
aV15b411cedadfc7b9
p3366
asS'09/22/2017'
p3367
(lp3368
V15eab5e6d37f6268
p3369
aV15eab5ccc1462bcb
p3370
aV15eab5aefd40c58a
p3371
aV15eab4bdf0812814
p3372
aV15ea7be2b8f13955
p3373
aV15ea7be2b1c6c325
p3374
aV15ea734bd8b41902
p3375
asS'07/25/2017'
p3376
(lp3377
V15d7c26a21b19886
p3378
aV15d7c2044a9afa1e
p3379
aV15d7c1f8907fc1c6
p3380
aV15d7c1b5f7bc0c8e
p3381
aV15d7c1b59bf6f57e
p3382
aV15d7c1ab4ecae2c0
p3383
aV15d7c1aaa70659fa
p3384
aV15d7b22c7271a0d7
p3385
aV15d7b22c69eb3653
p3386
aV15d7b22c68edcbb1
p3387
aV15d7b227b326fb63
p3388
aV15d7b2251ed43a38
p3389
aV15d7b2251bc5f4cf
p3390
aV15d7b22506bf343e
p3391
aV15d7b222f788eb8d
p3392
aV15d7b222f1ddb02d
p3393
aV15d7b2227c22e534
p3394
aV15d7b22278df4c4a
p3395
aV15d7b22270de8c4b
p3396
aV15d7b2226cba25db
p3397
aV15d7b22040b15aa4
p3398
aV15d7b21db51dc822
p3399
aV15d7b21b0d9fecd5
p3400
aV15d7af68e34cd7d9
p3401
aV15d7af33df20f5c0
p3402
aV15d7af316c327977
p3403
aV15d7a94793a2c0fb
p3404
aV15d7803757b652d6
p3405
aV15d78015f75d6a8f
p3406
aV15d77e714a0607c3
p3407
aV15d77e6edf1d045c
p3408
aV15d77ae4e44cbf53
p3409
aV15d77a994abc06d9
p3410
aV15d779ff91738bbc
p3411
aV15d779cb6ef3ba1b
p3412
aV15d779bad2bde271
p3413
aV15d778c3412fc8d1
p3414
asS'01/10/2018'
p3415
(lp3416
V160e28374129a135
p3417
aV160e21e3c8e2e543
p3418
aV160e1542575fd167
p3419
aV160df57e22ea9f19
p3420
aV160de70a1eae39a5
p3421
aV160de709fdc295f6
p3422
aV160de6a0cc2838b2
p3423
aV160de66ec293d480
p3424
aV160de60ad1ef5fe2
p3425
aV160dd7cd2736f80b
p3426
aV160dd78d87344182
p3427
asS'05/16/2017'
p3428
(lp3429
V15c139c6b7cf2dd6
p3430
aV15c13313b16b3dbf
p3431
aV15c11c33dfefc583
p3432
aV15c10c4ff8d670ab
p3433
asS'05/06/2017'
p3434
(lp3435
V15bdb37693415a2a
p3436
aV15bdb31613c56948
p3437
aV15bdb314c25911fe
p3438
asS'06/05/2017'
p3439
(lp3440
V15c7a699f657f421
p3441
aV15c7a3b62afa9f9f
p3442
aV15c7a1e3d81847c9
p3443
aV15c7985c4dbfca2b
p3444
aV15c79563d4100a2d
p3445
aV15c793f044c84510
p3446
aV15c792aae471b67e
p3447
aV15c791ee10591948
p3448
aV15c791c66e9d5c36
p3449
aV15c79193d2b8bfdf
p3450
aV15c7916da2c8a0d6
p3451
aV15c7914b86e81b51
p3452
aV15c790f6330c1118
p3453
aV15c790c192e46e7c
p3454
aV15c7907178ce4547
p3455
aV15c78f93f8bb52f8
p3456
aV15c78f2e8cf05b5a
p3457
aV15c77303ab9b15a4
p3458
as.