(dp1
S'msg_subject'
p2
S'Fwd: Clara Marquardt paid you $37.00 on Venmo'
p3
sS'msg_from'
p4
S'Shreyas Lakhtakia <shreyaslakhtakia@gmail.com>'
p5
sS'msg_to'
p6
S'Clara Marquardt <marquardt.clara@gmail.com>'
p7
sS'msg_inbox_outbox'
p8
S'inbox'
p9
sS'msg_id'
p10
V160c43f6689f6e52
p11
sS'msg_threadid'
p12
V160c43f6689f6e52
p13
sS'msg_date'
p14
S'Fri, 05 Jan 2018 02:56:06 +0000'
p15
sS'msg_id_mime'
p16
S'<CALEjPT8vjxDaz=iBoX5+Kb5K=bhma_7KaAkf0TSZeO2mS7ZZDA@mail.gmail.com>'
p17
sS'msg_text'
p18
S"Just saw this... Reconfirmed that venmo does not work for me (lol). But on\nthe bright side, at least it wasn't a new year's gift to a complete other\nstranger ;)\nFrom my understanding, if I don't do anything for 30d, you'll just get the\n$ back! :)\n"
p19
sS'msg_reply_to_id_mime'
p20
S'<01000160bf15b5f6-5d9417c8-15ff-4499-9aa8-c0f18644df24-000000@email.amazonses.com>'
p21
sS'msg_label'
p22
(lp23
VIMPORTANT
p24
aVCATEGORY_PERSONAL
p25
aVINBOX
p26
asS'msg_cc'
p27
NsS'msg_bcc'
p28
Ns.