(dp1
S'msg_subject'
p2
S'Clara computer'
p3
sS'msg_from'
p4
S'Clara Marquardt <cmarquardt@uchicago.edu>'
p5
sS'msg_to'
p6
S'Clara Marquardt <marquardt.clara@gmail.com>'
p7
sS'msg_inbox_outbox'
p8
S'inbox'
p9
sS'msg_id'
p10
V16135f6135f157d6
p11
sS'msg_threadid'
p12
V16135f6135f157d6
p13
sS'msg_date'
p14
S'Sat, 27 Jan 2018 04:52:51 +0000'
p15
sS'msg_id_mime'
p16
S'<499EBAF2-1EC3-4F9E-B123-7A7232F1FE10@uchicago.edu>'
p17
sS'msg_text'
p18
S'Hi David,\nIt looks like my computer is again throwing errors - the below error (slightly different from the error I previously encountered) has occurred multiple times this afternoon at random points each time crashing the machine.\nMaybe this is a hardware issue after all?\nI will stop by on Monday,\nClara\n[cid:9D678F12-FC0E-4574-98D8-76C933F71BAA]\n'
p19
sS'msg_reply_to_id_mime'
p20
Fnan
sS'msg_label'
p21
(lp22
VCATEGORY_PERSONAL
p23
aVINBOX
p24
asS'msg_cc'
p25
NsS'msg_bcc'
p26
Ns.