(dp1
S'msg_subject'
p2
S'Fw: Cron <sx541@rgs05>\n /data/zolab/edw/edw_exploration/code/project/git_backup.sh'
p3
sS'msg_from'
p4
S'"Lakhtakia, Shreyas" <slakhtakia@bwh.harvard.edu>'
p5
sS'msg_to'
p6
S'Clara Marquardt <marquardt.clara@gmail.com>'
p7
sS'msg_inbox_outbox'
p8
S'inbox'
p9
sS'msg_id'
p10
V160bc34aac7ba476
p11
sS'msg_threadid'
p12
V160bc34aac7ba476
p13
sS'msg_date'
p14
S'Wed, 3 Jan 2018 13:27:32 +0000'
p15
sS'msg_id_mime'
p16
S'<BN6PR04MB11556240CC8FAE5E0DC99913821E0@BN6PR04MB1155.namprd04.prod.outlook.com>'
p17
sS'msg_text'
p18
S'Never figured out what these do and if I need to forward these to someone on my way out?\n'
p19
sS'msg_reply_to_id_mime'
p20
S'<20180103050101.3EDDB21F4C@rgs05.research.partners.org>'
p21
sS'msg_label'
p22
(lp23
VIMPORTANT
p24
aVCATEGORY_PERSONAL
p25
aVINBOX
p26
asS'msg_cc'
p27
NsS'msg_bcc'
p28
Ns.