(dp1
S'msg_subject'
p2
S'Re: LBS Interview'
p3
sS'msg_from'
p4
S'Lisa Jaffre Christensen <lisachristensen214@gmail.com>'
p5
sS'msg_to'
p6
S'Clara Marquardt <marquardt.clara@gmail.com>'
p7
sS'msg_inbox_outbox'
p8
S'inbox'
p9
sS'msg_id'
p10
V1618a7b86252c66b
p11
sS'msg_threadid'
p12
V16176b391898735c
p13
sS'msg_date'
p14
S'Mon, 12 Feb 2018 08:46:43 -0600'
p15
sS'msg_id_mime'
p16
S'<9DBE71A9-4207-4D0B-B0C0-487E8E18723A@gmail.com>'
p17
sS'msg_text'
p18
S'Clara\nHere is the address of the office building where the session will be:  \nIt\xe2\x80\x99s a Regus office where I have rented a meeting room from 8-10.  I\xe2\x80\x99d prefer to start a bit earlier bc I have a hard stop at 10.  However, as you can see above, the office may not be open before 8:30.  Am waiting for the manager to confirm if they can be there early.\nSo, let\xe2\x80\x99s plan to meet at 8:00.  If they can\xe2\x80\x99t/won\xe2\x80\x99t open early, then we\xe2\x80\x99ll start at 8:30 -  we\xe2\x80\x99ll just have to talk quickly!\nI\xe2\x80\x99ll confirm once I hear from the office manager.\nSee you soon,\nL\n'
p19
sS'msg_reply_to_id_mime'
p20
S'<CDFD4678-3625-45F7-8EB9-78F733B8D920@gmail.com>'
p21
sS'msg_label'
p22
(lp23
VIMPORTANT
p24
aVCATEGORY_PERSONAL
p25
aVINBOX
p26
asS'msg_cc'
p27
NsS'msg_bcc'
p28
Ns.