(dp1
S'msg_subject'
p2
S'Re: Chatting about LBS'
p3
sS'msg_from'
p4
S'Isaac Gross <isaac.gross@gmail.com>'
p5
sS'msg_to'
p6
S'Clara Marquardt <marquardt.clara@gmail.com>'
p7
sS'msg_inbox_outbox'
p8
S'inbox'
p9
sS'msg_id'
p10
V1615875e18a09f59
p11
sS'msg_threadid'
p12
V161585b503709b1e
p13
sS'msg_date'
p14
S'Fri, 2 Feb 2018 13:39:34 -0800'
p15
sS'msg_id_mime'
p16
S'<CAP2-O2fwX+hEZzHf8DvVqFN9LH0sPBa4gSOO6gFz4_U537ri_A@mail.gmail.com>'
p17
sS'msg_text'
p18
S"I'm based in Seattle. How about next Friday at 11 am Pacific time?\n"
p19
sS'msg_reply_to_id_mime'
p20
S'<BC3F73DF-5486-4E34-BD1D-FF379C7DDD1D@gmail.com>'
p21
sS'msg_label'
p22
(lp23
VIMPORTANT
p24
aVCATEGORY_PERSONAL
p25
aVINBOX
p26
asS'msg_cc'
p27
NsS'msg_bcc'
p28
Ns.