(dp1
S'msg_subject'
p2
S'Loop Tax Site CLOSED Monday Feb 19'
p3
sS'msg_from'
p4
S'Center for Economic Progress <no-reply@volunteermatters.org>'
p5
sS'msg_to'
p6
S'marquardt.clara@gmail.com'
p7
sS'msg_inbox_outbox'
p8
S'inbox'
p9
sS'msg_id'
p10
V1619fb57ddcd2d14
p11
sS'msg_threadid'
p12
V1619fa987f636561
p13
sS'msg_date'
p14
S'Fri, 16 Feb 2018 17:42:06 +0000'
p15
sS'msg_id_mime'
p16
S'<010001619fb57c0e-393328c7-951a-4d18-8d90-511ff75ce639-000000@email.amazonses.com>'
p17
sS'msg_text'
p18
S'<!DOCTYPE html>\n<html>\n<head>\n    <meta content="text/html; charset=UTF-8" http-equiv="Content-Type" />\n</head>\n<body style="line-height: 1; color: black; background: white;">\n<div style="margin: 0; padding: 0; border: 0; outline: 0; font-weight: inherit; font-style: inherit; font-size: 100%; font-family: inherit; vertical-align: baseline; line-height: 1.3em;">\n    <table border="0" cellpadding="0" cellspacing="0" style="border-collapse: separate; border-spacing: 0;" width="100%">\n        <TBODY><tr>\n            <td align="center" style="text-align: left; font-weight: normal; font-family: Verdana, Arial, sans-serif;" valign="top">\n                <div style="text-align: center;">\n                    <img alt="Center for Economic Progress: Working Solutions for Working Families" src="https://www.volunteermatters.net/content/closerware/custom_css/economicprogress/css/images/CEP_logo_210x160.jpg" style="color: #54a48b; font-weight: bold; font-size: 1.2em;" />\n                </div>\n                \n<p>\n  Dear <span class="replacement">Clara</span>,\n</p>\n<p class="replacement">We wanted to inform you that the Loop tax site will be closed Monday February 19th for President\'s Day. Have a great weekend!\n<br/></p>\n<p>Sincerely,<br /></p>\n<p class="replacement">Center for Economic Progress</p>\n            </td>\n        </tr>\n        <tr>\n            <td style="text-align: left; font-weight: normal;">\n                <img alt="powered by VolunteerMatters" height="22" src="https://economicprogress.volunteermatters.org/images/email_footer.jpg" style="font-weight: bold; font-style: italic;" width="227" />\n            </td>\n        </tr>\n    </TBODY></table>\n</div>\n</body></html>\n'
p19
sS'msg_reply_to_id_mime'
p20
Fnan
sS'msg_label'
p21
(lp22
VCATEGORY_PERSONAL
p23
aVINBOX
p24
asS'msg_cc'
p25
NsS'msg_bcc'
p26
Ns.