(dp1
S'msg_subject'
p2
S'Fwd: [Topcoder Connect] Development Phase Start!'
p3
sS'msg_from'
p4
S'Bec Weeks <weeks.rebecca@gmail.com>'
p5
sS'msg_to'
p6
S'Clara Marquardt <marquardt.clara@gmail.com>'
p7
sS'msg_inbox_outbox'
p8
S'inbox'
p9
sS'msg_id'
p10
V16190e7033f0f371
p11
sS'msg_threadid'
p12
V1616debb30436f6b
p13
sS'msg_date'
p14
S'Tue, 13 Feb 2018 15:41:12 -0500'
p15
sS'msg_id_mime'
p16
S'<CAPp_zuoxkbdoot24SLo6ZsDQpa=NaZr7LFJs0DMti-j2ZHyExg@mail.gmail.com>'
p17
sS'msg_text'
p18
S'Hey Clara - see below from Qun - any thoughts here?\n-B\n'
p19
sS'msg_reply_to_id_mime'
p20
S'<topic/19650/69074@talk.topcoder.com>'
p21
sS'msg_label'
p22
(lp23
VIMPORTANT
p24
aVCATEGORY_PERSONAL
p25
aVINBOX
p26
asS'msg_cc'
p27
NsS'msg_bcc'
p28
Ns.