(dp1
S'msg_subject'
p2
S'MA Ceremony - 24th February 2018'
p3
sS'msg_from'
p4
S'tutorial-office <tutorial-office@emma.cam.ac.uk>'
p5
sS'msg_to'
p6
S'tutorial-office <tutorial-office@emma.cam.ac.uk>'
p7
sS'msg_inbox_outbox'
p8
S'inbox'
p9
sS'msg_id'
p10
V160fe964485003b3
p11
sS'msg_threadid'
p12
V160fe964485003b3
p13
sS'msg_date'
p14
S'Tue, 16 Jan 2018 10:49:02 +0000'
p15
sS'msg_id_mime'
p16
S'<716f937b38e04b95b7db7d7a09989260@Exchange2013.admin.emma.cam.ac.uk>'
p17
sS'msg_text'
p18
S'Dear Graduand\nFurther to the recent email from Jeremy Caddick inviting you to the MA Ceremony on 24 February 2018, I note from our records that you have not yet signed up to take you MA on this occasion.   Please follow the link below by Friday 26 January 2018 to add you name to the ceremony list.  Unfortunately, it will not be possible to add graduands to the list after this date.\nhttp://www.emma.cam.ac.uk/life/graduation/ma/\nBest wishes\nHelen\nHelen Waterson\nTutorial and Admissions Administrator\nEmmanuel College\nTelephone: 01223 334244\nEmail: tutorial-office@emma.cam.ac.uk\n'
p19
sS'msg_reply_to_id_mime'
p20
Fnan
sS'msg_label'
p21
(lp22
VCATEGORY_PERSONAL
p23
aVINBOX
p24
asS'msg_cc'
p25
NsS'msg_bcc'
p26
Ns.