(dp1
S'msg_subject'
p2
S'Re: NBER Computing Facilities Downtime, Sunday, Jan 7, 2018 12:00\n 1:00 PM - 6:00 PM EST.'
p3
sS'msg_from'
p4
S'Mohan Ramanujan <mohan@nber.org>'
p5
sS'msg_to'
p6
S'activenberunix@nber.org'
p7
sS'msg_inbox_outbox'
p8
S'inbox'
p9
sS'msg_id'
p10
V160d1b67f8a1714b
p11
sS'msg_threadid'
p12
V160d1b67f8a1714b
p13
sS'msg_date'
p14
S'Sun, 7 Jan 2018 12:41:02 -0500 (EST)'
p15
sS'msg_id_mime'
p16
S'<pmd-31140-activenberunix-moh-claramar@nber.org>'
p17
sS'msg_text'
p18
S'Dear All:\nThis is just a reminder that we are about to begin our downtime operations \nas scheduled.  We will send another email once we are done.  Thank you.\n--\nmohan\n---------------------------------------------------------------------\n'
p19
sS'msg_reply_to_id_mime'
p20
S'<pmd-19184-activenberunix-moh-mohan@nber.org>'
p21
sS'msg_label'
p22
(lp23
VCATEGORY_PERSONAL
p24
aVINBOX
p25
asS'msg_cc'
p26
NsS'msg_bcc'
p27
Ns.