(dp1
S'msg_subject'
p2
S'Google APIs Explorer connected to your Google Account'
p3
sS'msg_from'
p4
S'Google <no-reply@accounts.google.com>'
p5
sS'msg_to'
p6
S'marquardt.clara@gmail.com'
p7
sS'msg_inbox_outbox'
p8
S'inbox'
p9
sS'msg_id'
p10
V16135766f2ab29d6
p11
sS'msg_threadid'
p12
V161354a771397a6d
p13
sS'msg_date'
p14
S'Sat, 27 Jan 2018 02:33:24 +0000 (UTC)'
p15
sS'msg_id_mime'
p16
S'<4mcuFGVW3OnVXroQbgLmxw@notifications.google.com>'
p17
sS'msg_text'
p18
S"Google APIs Explorer connected to your Google Account\nHi Clara,\nGoogle APIs Explorer now has access to your Google Account\nmarquardt.clara@gmail.com.\nGoogle APIs Explorer can:\n    - Manage your contacts\n    - View your contacts\nYou should only give this access to apps you trust. Review or remove apps\nconnected to your account any time at My Account\n<https://myaccount.google.com/permissions>.\nLearn more <https://support.google.com/accounts/answer/3466521> about what\nit means to connect an app to your account.\nThe Google Accounts team\nThis email can't receive replies. For more information, visit the Google\nAccounts Help Center <https://support.google.com/accounts/answer/3466521>.\nYou received this mandatory email service announcement to update you about\nimportant changes to your Google product or account.\n\xc2\xa9 2018 Google Inc., 1600 Amphitheatre Parkway, Mountain View, CA 94043, USA\net:127\n"
p19
sS'msg_reply_to_id_mime'
p20
Fnan
sS'msg_label'
p21
(lp22
VCATEGORY_PERSONAL
p23
aVINBOX
p24
asS'msg_cc'
p25
NsS'msg_bcc'
p26
Ns.