(dp1
S'msg_subject'
p2
S'Re:'
p3
sS'msg_from'
p4
S'alf zips <alfzips@gmail.com>'
p5
sS'msg_to'
p6
S'Clara Marquardt <marquardt.clara@gmail.com>'
p7
sS'msg_inbox_outbox'
p8
S'inbox'
p9
sS'msg_id'
p10
V15ffcb4f7b012b34
p11
sS'msg_threadid'
p12
V15ff00bd33867a90
p13
sS'msg_date'
p14
S'Mon, 27 Nov 2017 10:00:37 +0100'
p15
sS'msg_id_mime'
p16
S'<CAF34eQHugVS4d0pziw6OGZ5yZpVvu9HFm19PNux6Ru-DTNs3Jg@mail.gmail.com>'
p17
sS'msg_text'
p18
S'Hallo H\xc3\xbcHnchen....hab mein Handy bei dir liegengelassen, aslo kann fitbit\nnicht kontrollieren.... bis morgen abend. aber du kannst mit \xc3\xbcber Skype\njederzeit erreichen :=\n'
p19
sS'msg_reply_to_id_mime'
p20
S'<ED5A523B-3E99-4C44-B803-A48A477F35FB@gmail.com>'
p21
sS'msg_label'
p22
(lp23
VIMPORTANT
p24
aVCATEGORY_PERSONAL
p25
aVINBOX
p26
asS'msg_cc'
p27
NsS'msg_bcc'
p28
Ns.