(dp1
S'msg_subject'
p2
S'Old IDEA VMs not used'
p3
sS'msg_from'
p4
S'"Merchan, Edana K." <EMERCHAN@PARTNERS.ORG>'
p5
sS'msg_to'
p6
S'"Obermeyer, Ziad,M.D.,M.Phil." <ZOBERMEYER@BWH.HARVARD.EDU>, "Pany,\r\n Maximilian J." <mpany@bwh.harvard.edu>, "marquardt.clara@gmail.com"\r\n\t<marquardt.clara@gmail.com>'
p7
sS'msg_inbox_outbox'
p8
S'inbox'
p9
sS'msg_id'
p10
V1615759a8590e15a
p11
sS'msg_threadid'
p12
V1615759a8590e15a
p13
sS'msg_date'
p14
S'Fri, 2 Feb 2018 16:29:06 +0000'
p15
sS'msg_id_mime'
p16
S'<D699FBFF.18CB8%emerchan@partners.org>'
p17
sS'msg_text'
p18
S"Hi All,\nOur record show that your group have one VM on the IDEA platform that we believe is no longer used. It's accessible through the DNS name (*.idea.partners.org). This VM will be decommissioned shortly.  Please let us know if you still need it. We will not host this type of VMs anymore and they will have to be moved to dipr or other VM host service if needed.\nbwhe40monserver0\nPlease let as know as soon as you can.\nThanks,\nEdana\n"
p19
sS'msg_reply_to_id_mime'
p20
Fnan
sS'msg_label'
p21
(lp22
VIMPORTANT
p23
aVCATEGORY_PERSONAL
p24
aVINBOX
p25
asS'msg_cc'
p26
NsS'msg_bcc'
p27
Ns.