(dp1
S'msg_subject'
p2
S'Re: Clara MBA Update'
p3
sS'msg_from'
p4
S'"Unverzagt, Eric" <eunverz@fas.harvard.edu>'
p5
sS'msg_to'
p6
S'Clara Marquardt <marquardt.clara@gmail.com>'
p7
sS'msg_inbox_outbox'
p8
S'inbox'
p9
sS'msg_id'
p10
V16155f4ab8208a42
p11
sS'msg_threadid'
p12
V1615396d234a1b07
p13
sS'msg_date'
p14
S'Fri, 2 Feb 2018 09:59:11 +0000'
p15
sS'msg_id_mime'
p16
S'<SN2PR07MB24941198CEBF5645D02088FFE5F90@SN2PR07MB2494.namprd07.prod.outlook.com>'
p17
sS'msg_text'
p18
S'Hi Clara,\nGot it. Thanks.\nEric\nGet Outlook for iOS<https://aka.ms/o0ukef>\n'
p19
sS'msg_reply_to_id_mime'
p20
S'<5a739b58.557b240a.b2ea1.0ec8@mx.google.com>'
p21
sS'msg_label'
p22
(lp23
VIMPORTANT
p24
aVCATEGORY_PERSONAL
p25
aVINBOX
p26
asS'msg_cc'
p27
NsS'msg_bcc'
p28
Ns.