(dp1
S'msg_subject'
p2
S'RE: Urban Labs Title'
p3
sS'msg_from'
p4
S'Clara Marquardt <cmarquardt@uchicago.edu>'
p5
sS'msg_to'
p6
S'Clara Marquardt <marquardt.clara@gmail.com>'
p7
sS'msg_inbox_outbox'
p8
S'inbox'
p9
sS'msg_id'
p10
V160e7596a4aab25b
p11
sS'msg_threadid'
p12
V160e7596a4aab25b
p13
sS'msg_date'
p14
S'Thu, 11 Jan 2018 22:31:23 +0000'
p15
sS'msg_id_mime'
p16
S'<CY1PR11MB07612B36753FA5FD51A706ACA7160@CY1PR11MB0761.namprd11.prod.outlook.com>'
p17
sS'msg_text'
p18
S'Hi Roseanna,\nI just wanted to follow-up regarding my last email.\nSendhil mentioned that he had spoken to you a few weeks ago about my title for grad school applications ("Lead Data Scientist - Special Projects"). He had passed on to me your feedback that I should talk to Yael and Abbie - before I do this I wanted to check with you directly whether you are OK with this.\nMany thanks and apologies for taking up your time with such logistics,\nClara\n'
p19
sS'msg_reply_to_id_mime'
p20
S'<A88F4CCE-017D-4D36-A6ED-9A175B8B6E11@uchicago.edu>'
p21
sS'msg_label'
p22
(lp23
VIMPORTANT
p24
aVCATEGORY_PERSONAL
p25
aVINBOX
p26
asS'msg_cc'
p27
NsS'msg_bcc'
p28
Ns.