(dp1
S'msg_subject'
p2
S'Cancer infection final list - Invitation to edit'
p3
sS'msg_from'
p4
S'"Ziad Obermeyer (via Google Docs)" <ziadoo@gmail.com>'
p5
sS'msg_to'
p6
S'marquardt.clara@gmail.com'
p7
sS'msg_inbox_outbox'
p8
S'inbox'
p9
sS'msg_id'
p10
V1619a79614e87545
p11
sS'msg_threadid'
p12
V1619a79614e87545
p13
sS'msg_date'
p14
S'Thu, 15 Feb 2018 17:18:21 +0000'
p15
sS'msg_id_mime'
p16
S'<94eb2c06c3ae1c81a40565436a20@google.com>'
p17
sS'msg_text'
p18
S"I've shared an item with you:\nCancer infection final list\nhttps://docs.google.com/document/d/1XhyseWsd4x2dibFrRBX5C57K3WwbQowJtzwH9E2J0iI/edit?usp=sharing&ts=5a85c0dd\nIt's not an attachment -- it's stored online. To open this item, just click  \nthe link above.\n"
p19
sS'msg_reply_to_id_mime'
p20
Fnan
sS'msg_label'
p21
(lp22
VCATEGORY_PERSONAL
p23
aVINBOX
p24
asS'msg_cc'
p25
NsS'msg_bcc'
p26
Ns.