(dp1
S'msg_subject'
p2
S'AW: Re:'
p3
sS'msg_from'
p4
S'Ulla Marquardt <ulla.marquardt@yahoo.de>'
p5
sS'msg_to'
p6
S'"marquardt.clara@gmail.com" <marquardt.clara@gmail.com>'
p7
sS'msg_inbox_outbox'
p8
S'inbox'
p9
sS'msg_id'
p10
V160cce96e74bf174
p11
sS'msg_threadid'
p12
V160cae524f17eafa
p13
sS'msg_date'
p14
S'Sat, 6 Jan 2018 19:18:54 +0000 (UTC)'
p15
sS'msg_id_mime'
p16
S'<1958494105.2639524.1515266334157@mail.yahoo.com>'
p17
sS'msg_text'
p18
S'Dann w\xc3\xbcnsche ich dir gute K\xc3\xbcrzungsideen. Und bin gespannt auf Draft Nr. \xc2\xa02.\nViel Gl\xc3\xbcck mein Engel.\xc2\xa0\nGesendet von Yahoo Mail auf Android \n \n  Am Sa., Jan. 6, 2018 at 19:53 schrieb Clara Marquardt<marquardt.clara@gmail.com>:   Danke :) leider glaube ich kann man viele der Sachen die du gestrichen hast nicht streichen : ( : (\xc2\xa0\nhuhn sitzt jetzt wieder dran\nalso,\nich finde die struktur auch sehr gut. \nich habe jetzt mal geschaut, was man k\xc3\xbcrzen k\xc3\xb6nnte. und bin aktuell bei 412 w\xc3\xb6rtern.\naber mit besseren formulierungen l\xc3\xa4st sich sicher noch einiges k\xc3\xbcrzen. den letzten paragraph (knowing me) and why sloan is the best place - den w\xc3\xbcrde ich mehr oder weniger so lassen. \nbye bye cherie\n      Von: Clara Marquardt <marquardt.clara@gmail.com>\n An: alf zips <alfzips@gmail.com>; Ulla Marquardt <ulla.marquardt@yahoo.de> \n Gesendet: 10:55 Samstag, 6.Januar 2018\n Betreff: \n  \nAlso es ist noch viel Arbeit - \n(a) ich glaube die Struktur passt \n(b) es ist 200 W\xc3\xb6rter zu lang (max 330 ohne die Begr\xc3\xbc\xc3\x9fung und das Dankesch\xc3\xb6n)\n(c) das Haupt problem sind die Beispiele die nicht sehr ausgereift sind - diese m\xc3\xbcssen VIEl k\xc3\xbcrzer werden\ndann muss nat\xc3\xbcrlich noch alles besser vormuliert werden\nIch muss morgen diesen essay irgendwie in form bringen - Sonntag dan die presentation\n   <MIT draft V10000 - Cover \xc2\xa0letter_Ulla_2.docx>\n \n'
p19
sS'msg_reply_to_id_mime'
p20
S'<814CF54E-17A8-479E-B1AF-9189BB1CE6E8@gmail.com>'
p21
sS'msg_label'
p22
(lp23
VIMPORTANT
p24
aVCATEGORY_PERSONAL
p25
aVINBOX
p26
asS'msg_cc'
p27
NsS'msg_bcc'
p28
Ns.