(dp1
S'msg_subject'
p2
S'Re:'
p3
sS'msg_from'
p4
S'alf zips <alfzips@gmail.com>'
p5
sS'msg_to'
p6
S'Clara Marquardt <marquardt.clara@gmail.com>'
p7
sS'msg_inbox_outbox'
p8
S'inbox'
p9
sS'msg_id'
p10
V15fb4257b3bb269b
p11
sS'msg_threadid'
p12
V15fb3f8ff5fcaa8f
p13
sS'msg_date'
p14
S'Mon, 13 Nov 2017 07:51:14 +0100'
p15
sS'msg_id_mime'
p16
S'<CAF34eQEKiRD3p-uS5-9bbK=P2v8cs_xjFWy0sTdNFf1QPw=cPQ@mail.gmail.com>'
p17
sS'msg_text'
p18
S'Ds tut mir leid.... lass dir zeit \xf0\x9f\x98\x97\n'
p19
sS'msg_reply_to_id_mime'
p20
S'<E14F298A-BB75-4A95-AADC-80B543051050@gmail.com>'
p21
sS'msg_label'
p22
(lp23
VIMPORTANT
p24
aVCATEGORY_PERSONAL
p25
aVINBOX
p26
asS'msg_cc'
p27
NsS'msg_bcc'
p28
Ns.