(dp1
S'msg_subject'
p2
S'AW: Re:'
p3
sS'msg_from'
p4
S'Ulla Marquardt <ulla.marquardt@yahoo.de>'
p5
sS'msg_to'
p6
S'"marquardt.clara@gmail.com" <marquardt.clara@gmail.com>'
p7
sS'msg_inbox_outbox'
p8
S'inbox'
p9
sS'msg_id'
p10
V160c73aba424398c
p11
sS'msg_threadid'
p12
V160c036e830c596b
p13
sS'msg_date'
p14
S'Fri, 5 Jan 2018 16:49:58 +0000 (UTC)'
p15
sS'msg_id_mime'
p16
S'<808320094.1800532.1515170998193@mail.yahoo.com>'
p17
sS'msg_text'
p18
S'Das sind ganz gro\xc3\x9fartige Aussichten - und wundersch\xc3\xb6ne.\xc2\xa0\nCiao Bella\xc2\xa0\nGesendet von Yahoo Mail auf Android \n \n  Am Fr., Jan. 5, 2018 at 3:17 schrieb Clara Marquardt<marquardt.clara@gmail.com>:   Danke : )\nDie sonne kommt vor all dingen um die Ecke wenn ich im M\xc3\xa4rz kuendige und mein sabbatical starte : ) : )\xc2\xa0\nschau mein engelein,\ndas licht und der sonnenschein kommt schon wieder um die ecke :-)\n<sonne fu\xcc\x88r clara.jpg>\nwir haben dir sehr sehr gern geholfen - und machen das immer wieder. \ndein Tiger\n      Von: Clara Marquardt <marquardt.clara@gmail.com>\n An: alf zips <alfzips@gmail.com>; Ulla Marquardt <ulla.marquardt@yahoo.de> \n Gesendet: 9:08 Donnerstag, 4.Januar 2018\n Betreff: \n  \nTut mir leid dass ich mich erst jetzt melde\xe2\x80\xa6. \nWar gestern abend dann doch etwas erschoepft als ich die 2 essays endlich abgegeben habe. Habe den tag gebraucht um all meine sorgen, etc. zu verarbeiten - es ist jetzt so wie es ist. \nAm Wochenende mache ich dann mit MIT weiter. \nGANZ GANZ vielen dank euch beiden fuer all die Hilfe, Geduld und die emotionalle Unterst\xc3\xbctzung bei dieser ganzen Sache : ) : ) noch 2 Wochen und dann ist auch gut. Auch wenn kein MBA - ich denke mal der reflections Prozess, cv, etc. war auf jedenfall super hilfreich. \neuer Huhn\n   <sonne fu\xcc\x88r clara.jpg>\n \n'
p19
sS'msg_reply_to_id_mime'
p20
S'<48EC5866-DD72-412E-8807-0A33C9BC4FED@gmail.com>'
p21
sS'msg_label'
p22
(lp23
VIMPORTANT
p24
aVCATEGORY_PERSONAL
p25
aVINBOX
p26
asS'msg_cc'
p27
NsS'msg_bcc'
p28
Ns.