(dp1
S'msg_subject'
p2
S'Re: Connecting you with Clara - gender bias app'
p3
sS'msg_from'
p4
S'"Cameron Cohen" <cameron_cohen@college.harvard.edu>'
p5
sS'msg_to'
p6
S'"Clara Marquardt" <marquardt.clara@gmail.com>'
p7
sS'msg_inbox_outbox'
p8
S'inbox'
p9
sS'msg_id'
p10
V15fe4dadb7a1192e
p11
sS'msg_threadid'
p12
V15fd94f6ccdcbbd1
p13
sS'msg_date'
p14
S'Wed, 22 Nov 2017 09:50:57 -0800'
p15
sS'msg_id_mime'
p16
S'<5a15b8b7e5295500010a721b@polymail.io>'
p17
sS'msg_text'
p18
S'Looking forward to speaking in 10. Would you prefer to Skype or call?\nCameron\n'
p19
sS'msg_reply_to_id_mime'
p20
S'<20207DAE-3B5B-45F0-AAF2-DEDF11D5A7D1@gmail.com>'
p21
sS'msg_label'
p22
(lp23
VIMPORTANT
p24
aVCATEGORY_PERSONAL
p25
aVINBOX
p26
asS'msg_cc'
p27
NsS'msg_bcc'
p28
Ns.