(dp1
S'msg_subject'
p2
S'Re:'
p3
sS'msg_from'
p4
S'alf zips <alfzips@gmail.com>'
p5
sS'msg_to'
p6
S'Clara Marquardt <marquardt.clara@gmail.com>'
p7
sS'msg_inbox_outbox'
p8
S'inbox'
p9
sS'msg_id'
p10
V160e28374129a135
p11
sS'msg_threadid'
p12
V160e21e3c8e2e543
p13
sS'msg_date'
p14
S'Thu, 11 Jan 2018 00:59:12 +0100'
p15
sS'msg_id_mime'
p16
S'<CAF34eQGssybZZtm4KAL3+k2ukK0dX+VWtFSgPKqZmP4mQaeQRg@mail.gmail.com>'
p17
sS'msg_text'
p18
S'Hahnchen... hier mein Versuch\n'
p19
sS'msg_reply_to_id_mime'
p20
S'<C0EA254F-A2A1-41A5-B496-47004369D7E0@gmail.com>'
p21
sS'msg_label'
p22
(lp23
VIMPORTANT
p24
aVCATEGORY_PERSONAL
p25
aVINBOX
p26
asS'msg_cc'
p27
NsS'msg_bcc'
p28
Ns.