(dp1
S'msg_subject'
p2
S"Re: Join Sendhil's research lab"
p3
sS'msg_from'
p4
S'"Zhuo, Xiaolin" <xiaolinzhuo@fas.harvard.edu>'
p5
sS'msg_to'
p6
S'Clara Marquardt <marquardt.clara@gmail.com>'
p7
sS'msg_inbox_outbox'
p8
S'inbox'
p9
sS'msg_id'
p10
V161715b05ff0fb3e
p11
sS'msg_threadid'
p12
V1617159cc1f1c06b
p13
sS'msg_date'
p14
S'Wed, 7 Feb 2018 17:40:44 +0000'
p15
sS'msg_id_mime'
p16
S'<CY1PR07MB273256751FF108D496D45545FCFC0@CY1PR07MB2732.namprd07.prod.outlook.com>'
p17
sS'msg_text'
p18
S'Hi Clara,\nThat sounds great. Thank you so much for your help!\nBest,\nXiaolin\nXiaolin Zhuo\nPhD Candidate in Sociology\nHarvard University\n'
p19
sS'msg_reply_to_id_mime'
p20
S'<083BA575-290F-4928-855C-A1BDF632A5FD@gmail.com>'
p21
sS'msg_label'
p22
(lp23
VIMPORTANT
p24
aVCATEGORY_PERSONAL
p25
aVINBOX
p26
asS'msg_cc'
p27
S'"Wehrwein, Zachary Robert" <wehrwein@g.harvard.edu>'
p28
sS'msg_bcc'
p29
Ns.