(dp1
S'msg_subject'
p2
S'Invitation: KnowingMe weekly team call @ Weekly from 14:00 to 14:40\n on Thursday from Thu Feb 15 to Thu Jun 14 (CST) (Clara Marquardt)'
p3
sS'msg_from'
p4
S'Bec Weeks <weeks.rebecca@gmail.com>'
p5
sS'msg_to'
p6
S'marquardt.clara@gmail.com, cameron_cohen@college.harvard.edu, \r\n\tjeff morin <morin.jeff@gmail.com>'
p7
sS'msg_inbox_outbox'
p8
S'inbox'
p9
sS'msg_id'
p10
V1619a4ad3c8f1e6c
p11
sS'msg_threadid'
p12
V1619a4ad3c8f1e6c
p13
sS'msg_date'
p14
S'Thu, 15 Feb 2018 16:27:30 +0000'
p15
sS'msg_id_mime'
p16
S'<001a113d351e473c30056542b4cb@google.com>'
p17
sS'msg_text'
p18
S'You have been invited to the following event.\nTitle: KnowingMe weekly team call\nAdding our weekly team call back into the calendar.--------Hi there, Bec  \nWeeks is inviting you to a scheduled Zoom meeting. Join from PC, Mac,  \nLinux, iOS or Android: https://zoom.us/j/604660931Or iPhone  \none-tap :&nbsp;&nbsp;&nbsp;&nbsp;US: +16699006833,,604660931#  or  \n+16468769923,,604660931# Or Telephone:&nbsp;&nbsp;&nbsp;&nbsp;Dial(for  \nhigher quality, dial a number based on your current location):  \n&nbsp;&nbsp;&nbsp;&nbsp;&nbsp;&nbsp;&nbsp;&nbsp;US: +1 669 900 6833  or +1  \n646 876 9923 &nbsp;&nbsp;&nbsp;&nbsp;Meeting ID: 604 660  \n931&nbsp;&nbsp;&nbsp;&nbsp;International numbers available:  \nhttps://zoom.us/zoomconference?m=Jbz-kL-lKAONdQ_YpkZeyrbYCS-ujnOU\nWhen: Weekly from 14:00 to 14:40 on Thursday from Thu Feb 15 to Thu Jun 14  \nCentral Time\nWhere: https://zoom.us/j/604660931\nCalendar: Clara Marquardt\nWho:\n     * Bec Weeks - organizer\n     * cameron_cohen@college.harvard.edu\n     * jeff morin\n     * Clara Marquardt\nEvent details:  \nhttps://www.google.com/calendar/event?action=VIEW&eid=YjBkdmFpZXRwazVxbTFjcG5lcHZiMGlkYWcgbWFycXVhcmR0LmNsYXJhQG0&tok=MjMjd2Vla3MucmViZWNjYUBnbWFpbC5jb202NmNiZjhlYzA1NjUzYzFjYzQzM2NiNjI2ZTRiNThmMGVjNWJmMzE3&ctz=America/Chicago&hl=en\nInvitation from Google Calendar: https://www.google.com/calendar/\nYou are receiving this email at the account marquardt.clara@gmail.com  \nbecause you are subscribed for invitations on calendar Clara Marquardt.\nTo stop receiving these emails, please log in to  \nhttps://www.google.com/calendar/ and change your notification settings for  \nthis calendar.\nForwarding this invitation could allow any recipient to modify your RSVP  \nresponse. Learn more at  \nhttps://support.google.com/calendar/answer/37135#forwarding\n'
p19
sS'msg_reply_to_id_mime'
p20
Fnan
sS'msg_label'
p21
(lp22
VCATEGORY_PERSONAL
p23
aVINBOX
p24
asS'msg_cc'
p25
NsS'msg_bcc'
p26
Ns.