(dp1
S'msg_subject'
p2
S'Fwd: RA inquiry'
p3
sS'msg_from'
p4
S'"Unverzagt, Eric" <eunverz@fas.harvard.edu>'
p5
sS'msg_to'
p6
S'"marquardt.clara@gmail.com" <marquardt.clara@gmail.com>'
p7
sS'msg_inbox_outbox'
p8
S'inbox'
p9
sS'msg_id'
p10
V160c2bad9dcd3700
p11
sS'msg_threadid'
p12
V160c2bad9dcd3700
p13
sS'msg_date'
p14
S'Thu, 4 Jan 2018 19:51:51 +0000'
p15
sS'msg_id_mime'
p16
S'<SN4PR0701MB364802FA87D8FF6CE80CB24BE51F0@SN4PR0701MB3648.namprd07.prod.outlook.com>'
p17
sS'msg_text'
p18
S'\nGet Outlook for iOS<https://aka.ms/o0ukef>\n_____________________________\n'
p19
sS'msg_reply_to_id_mime'
p20
S'<CAKW7LqdWWoqFORE-M_tiUB69stg-avHCcmJXp-MxFL=d+pfjCQ@mail.gmail.com>'
p21
sS'msg_label'
p22
(lp23
VIMPORTANT
p24
aVCATEGORY_PERSONAL
p25
aVINBOX
p26
asS'msg_cc'
p27
NsS'msg_bcc'
p28
Ns.