(dp1
S'msg_subject'
p2
S'Re: [Topcoder Connect] Development Phase Start!'
p3
sS'msg_from'
p4
S'Bec Weeks <weeks.rebecca@gmail.com>'
p5
sS'msg_to'
p6
S'Clara Marquardt <marquardt.clara@gmail.com>'
p7
sS'msg_inbox_outbox'
p8
S'inbox'
p9
sS'msg_id'
p10
V16190f7908de5bb6
p11
sS'msg_threadid'
p12
V1616debb30436f6b
p13
sS'msg_date'
p14
S'Tue, 13 Feb 2018 15:59:18 -0500'
p15
sS'msg_id_mime'
p16
S'<CAPp_zuq4hHYmjd8JB8cz1Vwx-Aht81XDhO0EeRMqPUU74B47EA@mail.gmail.com>'
p17
sS'msg_text'
p18
S"Agreed, seems like the best approach at this point.\nDon't think I'll be recommending working with Topcoder to anyone anytime\nsoon!\nThanks for your input Clara, really appreciate it!\nBec\n"
p19
sS'msg_reply_to_id_mime'
p20
S'<FAF3D0C8-3439-484D-AC3C-D3B229C9F62D@gmail.com>'
p21
sS'msg_label'
p22
(lp23
VIMPORTANT
p24
aVCATEGORY_PERSONAL
p25
aVINBOX
p26
asS'msg_cc'
p27
NsS'msg_bcc'
p28
Ns.