(dp1
S'msg_subject'
p2
S'Thank you for submitting your reference to London Business School'
p3
sS'msg_from'
p4
S'<reference.mba@london.edu>'
p5
sS'msg_to'
p6
S'<eunverz@fas.harvard.edu>'
p7
sS'msg_inbox_outbox'
p8
S'inbox'
p9
sS'msg_id'
p10
V15fe0696d70071a6
p11
sS'msg_threadid'
p12
V15fe0696d70071a6
p13
sS'msg_date'
p14
S'Tue, 21 Nov 2017 21:08:44 -0000'
p15
sS'msg_id_mime'
p16
S'<B282390EEEA04E32A05517EAD301C73F@london.campus.london.edu>'
p17
sS'msg_text'
p18
S"Dear Dr Mullainathan,\nThank you for submitting your reference in support of Clara Marquardt\nMarquardt to London Business School. Your assessment of the applicant\nwill assist the Admissions Committee in its evaluation, and we thank\nyou for your considerable time and effort. The Admissions Committee may\ncontact you for further information regarding this candidate.\nBest regards,\nMBA Programme Office\nLondon Business School\nRegent's Park\nLondon, NW1 4SA\nUnited Kingdom\nwww.london.edu\n+44 (0)20 7000 7525 / 7517\nDo not reply to this address. This is an auto-confirmation email sent\nby London Business School's online application system.\n\n"
p19
sS'msg_reply_to_id_mime'
p20
Fnan
sS'msg_label'
p21
(lp22
VCATEGORY_PERSONAL
p23
aVINBOX
p24
asS'msg_cc'
p25
S'<marquardt.clara@gmail.com>,\r\n\t<reference.mba@london.edu>'
p26
sS'msg_bcc'
p27
Ns.