(dp1
S'msg_subject'
p2
S"Fwd: Comedy Cellar @ Underground - Tonight's Reservation"
p3
sS'msg_from'
p4
S'Shreyas Lakhtakia <shreyaslakhtakia@gmail.com>'
p5
sS'msg_to'
p6
S'Clara Marquardt <marquardt.clara@gmail.com>'
p7
sS'msg_inbox_outbox'
p8
S'inbox'
p9
sS'msg_id'
p10
V161689fafa17487b
p11
sS'msg_threadid'
p12
V161689fafa17487b
p13
sS'msg_date'
p14
S'Tue, 06 Feb 2018 00:59:00 +0000'
p15
sS'msg_id_mime'
p16
S'<CALEjPT-X7at+6WyP0aHdKy6WqoRPjAO62-Qjw54fFz3bAFGRvQ@mail.gmail.com>'
p17
sS'msg_text'
p18
S"We need to do this when you're here! To add to list!! I have tickets that I\nneed to claim :)\n"
p19
sS'msg_reply_to_id_mime'
p20
S'<CAGE6hKOPBu2+jNvVPA2MH63dxn6WVks5WBDHsJLRBXxy2OfJPA@mail.gmail.com>'
p21
sS'msg_label'
p22
(lp23
VIMPORTANT
p24
aVCATEGORY_PERSONAL
p25
aVINBOX
p26
asS'msg_cc'
p27
NsS'msg_bcc'
p28
Ns.