(dp1
S'msg_subject'
p2
S'RE: Re:'
p3
sS'msg_from'
p4
S'alf zips <alfzips@gmail.com>'
p5
sS'msg_to'
p6
S'Clara Marquardt <marquardt.clara@gmail.com>'
p7
sS'msg_inbox_outbox'
p8
S'inbox'
p9
sS'msg_id'
p10
V160ec023d9dcd94b
p11
sS'msg_threadid'
p12
V160e3c7330af3073
p13
sS'msg_date'
p14
S'Fri, 12 Jan 2018 21:14:16 +0100'
p15
sS'msg_id_mime'
p16
S'<CAF34eQEsLJmwMOn0gYjXvWu9AGFhOakRaY-it7VBPsOZ-eaeng@mail.gmail.com>'
p17
sS'msg_text'
p18
S'Da\xc3\xb1n geb den Rechner mir.... er ist bestimmt besser als meiner und beim\nvierten gibt\'s auch nur Windows \xf0\x9f\x98\x97\xf0\x9f\x98\x8e\nAm 12.01.2018 21:08 schrieb "Clara Marquardt" <marquardt.clara@gmail.com>:\n'
p19
sS'msg_reply_to_id_mime'
p20
S'<5a5915cb.091a6b0a.6d82f.5b9b@mx.google.com>'
p21
sS'msg_label'
p22
(lp23
VIMPORTANT
p24
aVCATEGORY_PERSONAL
p25
aVINBOX
p26
asS'msg_cc'
p27
NsS'msg_bcc'
p28
Ns.