(dp1
S'msg_subject'
p2
S'Re:'
p3
sS'msg_from'
p4
S'alf zips <alfzips@gmail.com>'
p5
sS'msg_to'
p6
S'Clara Marquardt <marquardt.clara@gmail.com>'
p7
sS'msg_inbox_outbox'
p8
S'inbox'
p9
sS'msg_id'
p10
V1618894ddcdb01f8
p11
sS'msg_threadid'
p12
V161863f64ed577d3
p13
sS'msg_date'
p14
S'Mon, 12 Feb 2018 06:55:11 +0100'
p15
sS'msg_id_mime'
p16
S'<CAF34eQE+mjx_BnurpF=OtyjgDWXTQ5n4+0MV1ZnuDq_kiwsDqw@mail.gmail.com>'
p17
sS'msg_text'
p18
S'Es war zu sp\xc3\xa4t f\xc3\xbcr den rentner.... aber heute wann immer du mochtest. Bin\ndann online ...versprochen \xf0\x9f\x98\x97\n'
p19
sS'msg_reply_to_id_mime'
p20
S'<FFB8A979-187C-4C70-B3CB-39BB75FD7428@gmail.com>'
p21
sS'msg_label'
p22
(lp23
VIMPORTANT
p24
aVCATEGORY_PERSONAL
p25
aVINBOX
p26
asS'msg_cc'
p27
NsS'msg_bcc'
p28
Ns.