(dp1
S'msg_subject'
p2
S'Re:'
p3
sS'msg_from'
p4
S'Ulla Marquardt <ulla.marquardt@yahoo.de>'
p5
sS'msg_to'
p6
S'Clara Marquardt <marquardt.clara@gmail.com>, \r\n\talf zips <alfzips@gmail.com>'
p7
sS'msg_inbox_outbox'
p8
S'inbox'
p9
sS'msg_id'
p10
V160c23b7c56ad2bd
p11
sS'msg_threadid'
p12
V160c036e830c596b
p13
sS'msg_date'
p14
S'Thu, 4 Jan 2018 17:32:40 +0000 (UTC)'
p15
sS'msg_id_mime'
p16
S'<169870289.864639.1515087161183@mail.yahoo.com>'
p17
sS'msg_text'
p18
S'schau mein engelein,\ndas licht und der sonnenschein kommt schon wieder um die ecke :-)\nwir haben dir sehr sehr gern geholfen - und machen das immer wieder. \ndein Tiger\n      Von: Clara Marquardt <marquardt.clara@gmail.com>\n An: alf zips <alfzips@gmail.com>; Ulla Marquardt <ulla.marquardt@yahoo.de> \n Gesendet: 9:08 Donnerstag, 4.Januar 2018\n Betreff: \n   \nTut mir leid dass ich mich erst jetzt melde\xe2\x80\xa6. \nWar gestern abend dann doch etwas erschoepft als ich die 2 essays endlich abgegeben habe. Habe den tag gebraucht um all meine sorgen, etc. zu verarbeiten - es ist jetzt so wie es ist. \nAm Wochenende mache ich dann mit MIT weiter. \nGANZ GANZ vielen dank euch beiden fuer all die Hilfe, Geduld und die emotionalle Unterst\xc3\xbctzung bei dieser ganzen Sache : ) : ) noch 2 Wochen und dann ist auch gut. Auch wenn kein MBA - ich denke mal der reflections Prozess, cv, etc. war auf jedenfall super hilfreich. \neuer Huhn\n  '
p19
sS'msg_reply_to_id_mime'
p20
S'<284CC4B1-E680-4D57-9B5F-3B15A9D7D925@gmail.com>'
p21
sS'msg_label'
p22
(lp23
VIMPORTANT
p24
aVCATEGORY_PERSONAL
p25
aVINBOX
p26
asS'msg_cc'
p27
NsS'msg_bcc'
p28
Ns.