(dp1
S'msg_subject'
p2
S'Re:'
p3
sS'msg_from'
p4
S'alf zips <alfzips@gmail.com>'
p5
sS'msg_to'
p6
S'Clara Marquardt <marquardt.clara@gmail.com>'
p7
sS'msg_inbox_outbox'
p8
S'inbox'
p9
sS'msg_id'
p10
V15ffdc42cd314ea0
p11
sS'msg_threadid'
p12
V15ff00bd33867a90
p13
sS'msg_date'
p14
S'Mon, 27 Nov 2017 14:56:51 +0100'
p15
sS'msg_id_mime'
p16
S'<CAF34eQECwtkZi20Dq7b3Vz5+0+5kRu85hfnmOOS4deK3GtPTpg@mail.gmail.com>'
p17
sS'msg_text'
p18
S'von dir geerbt :;\n'
p19
sS'msg_reply_to_id_mime'
p20
S'<18D17DD7-52A9-4876-8059-6E7828F3E0F3@gmail.com>'
p21
sS'msg_label'
p22
(lp23
VIMPORTANT
p24
aVCATEGORY_PERSONAL
p25
aVINBOX
p26
asS'msg_cc'
p27
NsS'msg_bcc'
p28
Ns.