(dp1
S'msg_subject'
p2
S'Re: Two quick questions (not sure if you check Slack). Thank you!'
p3
sS'msg_from'
p4
S'Sendhil Mullainathan <sendhil.mullainathan@gmail.com>'
p5
sS'msg_to'
p6
S'Clara Marquardt <marquardt.clara@gmail.com>'
p7
sS'msg_inbox_outbox'
p8
S'inbox'
p9
sS'msg_id'
p10
V1618ad3d6825cc47
p11
sS'msg_threadid'
p12
V1612ec732b08342f
p13
sS'msg_date'
p14
S'Mon, 12 Feb 2018 16:23:03 +0000'
p15
sS'msg_id_mime'
p16
S'<CAPUhpVPzY7+K_QAHd=-PJisSuo9kzY1+QR+2O5ct1JNSEH8=uQ@mail.gmail.com>'
p17
sS'msg_text'
p18
S'Clara\nJust getting through emails - Aboslutely commit to that. And let me know if\ntheres anything I can do to help with B School interviews?\nSendhil\n'
p19
sS'msg_reply_to_id_mime'
p20
S'<CE07CBE5-9875-42EE-B9F4-D7F77C1CC5F8@gmail.com>'
p21
sS'msg_label'
p22
(lp23
VIMPORTANT
p24
aVCATEGORY_PERSONAL
p25
aVINBOX
p26
asS'msg_cc'
p27
NsS'msg_bcc'
p28
Ns.