(dp1
S'msg_subject'
p2
S'Bilder und gedanken zu Booth Essay due Start of february'
p3
sS'msg_from'
p4
S'Ulla Marquardt <ulla.marquardt@yahoo.de>'
p5
sS'msg_to'
p6
S'Clara Marquardt <marquardt.clara@gmail.com>'
p7
sS'msg_inbox_outbox'
p8
S'inbox'
p9
sS'msg_id'
p10
V16128bdd3166551a
p11
sS'msg_threadid'
p12
V16128bdd3166551a
p13
sS'msg_date'
p14
S'Wed, 24 Jan 2018 15:15:55 +0000 (UTC)'
p15
sS'msg_id_mime'
p16
S'<1192285553.7231539.1516806958373@mail.yahoo.com>'
p17
sS'msg_text'
p18
S'liebes, hab eben auch alles mit ein paar s\xc3\xa4tzen auf skype hochgeladen, aber hier nochmals per email\nich umarme dich und wuensche dir heute einen produktiven tag\nEs gibt noch mehr Bilder von der Aktion mit den papierkleidern sowie von dem Mapping projekt in Cambodia\n'
p19
sS'msg_reply_to_id_mime'
p20
Fnan
sS'msg_label'
p21
(lp22
VIMPORTANT
p23
aVCATEGORY_PERSONAL
p24
aVINBOX
p25
asS'msg_cc'
p26
NsS'msg_bcc'
p27
Ns.