(dp1
S'msg_subject'
p2
S'Re:'
p3
sS'msg_from'
p4
S'alf zips <alfzips@gmail.com>'
p5
sS'msg_to'
p6
S'Clara Marquardt <marquardt.clara@gmail.com>'
p7
sS'msg_inbox_outbox'
p8
S'inbox'
p9
sS'msg_id'
p10
V15ffdfd6ce55f2a1
p11
sS'msg_threadid'
p12
V15ff00bd33867a90
p13
sS'msg_date'
p14
S'Mon, 27 Nov 2017 15:59:23 +0100'
p15
sS'msg_id_mime'
p16
S'<CAF34eQGAjM5D=zzZTb4ypXbyfrh-z7hfnt84B8OiFk=dAHL_Lg@mail.gmail.com>'
p17
sS'msg_text'
p18
S'h\xc3\xbchnchn kannsz mir ja heute abend etwas schicken und dann skypen wir :)\n'
p19
sS'msg_reply_to_id_mime'
p20
S'<136E0E98-26B3-4FFF-A502-B18C43C39D0F@gmail.com>'
p21
sS'msg_label'
p22
(lp23
VIMPORTANT
p24
aVCATEGORY_PERSONAL
p25
aVINBOX
p26
asS'msg_cc'
p27
NsS'msg_bcc'
p28
Ns.