(dp1
S'msg_subject'
p2
S'Draft user testing guide and questionnaire - Invitation to edit'
p3
sS'msg_from'
p4
S'"Bec Weeks (via Google Docs)" <weeks.rebecca@gmail.com>'
p5
sS'msg_to'
p6
S'marquardt.clara@gmail.com'
p7
sS'msg_inbox_outbox'
p8
S'inbox'
p9
sS'msg_id'
p10
V1614eab44d9c714a
p11
sS'msg_threadid'
p12
V1614eab44d9c714a
p13
sS'msg_date'
p14
S'Thu, 01 Feb 2018 00:01:42 +0000'
p15
sS'msg_id_mime'
p16
S'<f4030435c5bcfc7cf605641b4c65@google.com>'
p17
sS'msg_text'
p18
S"I've shared an item with you:\nDraft user testing guide and questionnaire\nhttps://docs.google.com/document/d/1EZdFNiMXYE4F8OTTLjcWIzZFUrt9FVXN_oPiac1OzZY/edit?usp=sharing&ts=5a7258e6\nIt's not an attachment -- it's stored online. To open this item, just click  \nthe link above.\nDraft questions for user testing\n"
p19
sS'msg_reply_to_id_mime'
p20
Fnan
sS'msg_label'
p21
(lp22
VCATEGORY_PERSONAL
p23
aVINBOX
p24
asS'msg_cc'
p25
S'morin.jeff@gmail.com, cameron_cohen@college.harvard.edu, \r\n\tsendhil.mullainathan@gmail.com'
p26
sS'msg_bcc'
p27
Ns.