(dp1
S'msg_subject'
p2
S'Re: Troubleshooting for KnowingMe'
p3
sS'msg_from'
p4
S'Alex Blau <ablau@ideas42.org>'
p5
sS'msg_to'
p6
S'Clara Marquardt <marquardt.clara@gmail.com>'
p7
sS'msg_inbox_outbox'
p8
S'inbox'
p9
sS'msg_id'
p10
V1617a764841db92f
p11
sS'msg_threadid'
p12
V161722c462552ea5
p13
sS'msg_date'
p14
S'Fri, 09 Feb 2018 12:06:55 +0000'
p15
sS'msg_id_mime'
p16
S'<CAMr8H-mphNAmmmOEhLAjhxMk0COnJPZVSpAm8h0VkP5auNfNSg@mail.gmail.com>'
p17
sS'msg_text'
p18
S"Perfect! I'll send along a Zoom invite shortly.\n"
p19
sS'msg_reply_to_id_mime'
p20
S'<2AB3D6EA-E51E-4335-9A9D-896C04FB9B6C@gmail.com>'
p21
sS'msg_label'
p22
(lp23
VIMPORTANT
p24
aVCATEGORY_PERSONAL
p25
aVINBOX
p26
asS'msg_cc'
p27
NsS'msg_bcc'
p28
Ns.