(dp1
S'msg_subject'
p2
S'Re: Connecting you with Clara - gender bias app'
p3
sS'msg_from'
p4
S'Cameron Cohen <cameron_cohen@college.harvard.edu>'
p5
sS'msg_to'
p6
S'Bec Weeks <weeks.rebecca@gmail.com>'
p7
sS'msg_inbox_outbox'
p8
S'inbox'
p9
sS'msg_id'
p10
V15fda9ff8a7611b4
p11
sS'msg_threadid'
p12
V15fd94f6ccdcbbd1
p13
sS'msg_date'
p14
S'Mon, 20 Nov 2017 13:10:30 -0500'
p15
sS'msg_id_mime'
p16
S'<1F2926A4-8332-49A6-BE09-251ACDC41384@college.harvard.edu>'
p17
sS'msg_text'
p18
S'Bec, thanks so much, this sounds exciting! Looking forward to speaking with Clara and then you. \nClara, I\xe2\x80\x99ll be in LA as of tonight, so I think you\xe2\x80\x99re 9 hours ahead. Are you free either tomorrow morning my time (your Tuesday evening), late tomorrow night my time (your early Wednesday morning), or my Wednesday morning?\nBest,\nCameron\n'
p19
sS'msg_reply_to_id_mime'
p20
S'<CAPp_zupz-H0mUFsMnw7wPo8J6HOH0G6s7uDQ0eLeN6VhqJk5qg@mail.gmail.com>'
p21
sS'msg_label'
p22
(lp23
VIMPORTANT
p24
aVCATEGORY_PERSONAL
p25
aVINBOX
p26
asS'msg_cc'
p27
S'Clara Marquardt <marquardt.clara@gmail.com>'
p28
sS'msg_bcc'
p29
Ns.