(dp1
S'msg_subject'
p2
S'Re:'
p3
sS'msg_from'
p4
S'alf zips <alfzips@gmail.com>'
p5
sS'msg_to'
p6
S'Clara Marquardt <marquardt.clara@gmail.com>'
p7
sS'msg_inbox_outbox'
p8
S'inbox'
p9
sS'msg_id'
p10
V160ff34480eacb53
p11
sS'msg_threadid'
p12
V160fe08b93de5149
p13
sS'msg_date'
p14
S'Tue, 16 Jan 2018 14:41:42 +0100'
p15
sS'msg_id_mime'
p16
S'<CAF34eQG7t3fTBLdMJ6Kx+dznbNSFyQHKPJArLuuwz-cY9a2J9A@mail.gmail.com>'
p17
sS'msg_text'
p18
S'Sehr gut....\xf0\x9f\x98\x97\n'
p19
sS'msg_reply_to_id_mime'
p20
S'<D99D363C-0B23-4846-AED3-4956D2ED2F7C@gmail.com>'
p21
sS'msg_label'
p22
(lp23
VIMPORTANT
p24
aVCATEGORY_PERSONAL
p25
aVINBOX
p26
asS'msg_cc'
p27
NsS'msg_bcc'
p28
Ns.