(dp1
S'msg_subject'
p2
S"FW: Join Sendhil's research lab"
p3
sS'msg_from'
p4
S'"Unverzagt, Eric" <eunverz@fas.harvard.edu>'
p5
sS'msg_to'
p6
S'Clara Marquardt <marquardt.clara@gmail.com>'
p7
sS'msg_inbox_outbox'
p8
S'inbox'
p9
sS'msg_id'
p10
V16170d04873f544b
p11
sS'msg_threadid'
p12
V16170d04873f544b
p13
sS'msg_date'
p14
S'Wed, 7 Feb 2018 15:09:12 +0000'
p15
sS'msg_id_mime'
p16
S'<SN2PR07MB2494A833504483D14C59158EE5FC0@SN2PR07MB2494.namprd07.prod.outlook.com>'
p17
sS'msg_text'
p18
S'Hi Clara,\nPlease follow up on this.\nEric\n'
p19
sS'msg_reply_to_id_mime'
p20
S'<BN3PR07MB272102EFA5B265330BA602A4FCFC0@BN3PR07MB2721.namprd07.prod.outlook.com>'
p21
sS'msg_label'
p22
(lp23
VCATEGORY_PERSONAL
p24
aVINBOX
p25
asS'msg_cc'
p26
NsS'msg_bcc'
p27
Ns.