(dp1
S'msg_subject'
p2
S'Re: Chatting about Sloan'
p3
sS'msg_from'
p4
S'Jared Johnson <jrjohns@mit.edu>'
p5
sS'msg_to'
p6
S'Clara Marquardt <marquardt.clara@gmail.com>'
p7
sS'msg_inbox_outbox'
p8
S'inbox'
p9
sS'msg_id'
p10
V160fb774b3664ee1
p11
sS'msg_threadid'
p12
V160e74917f570ebf
p13
sS'msg_date'
p14
S'Mon, 15 Jan 2018 20:16:11 +0000'
p15
sS'msg_id_mime'
p16
S'<CACZbXav=tFsNM0z95Rs=+rwQV2+EZBTKCgRDZ1YXL8wWBzaBOg@mail.gmail.com>'
p17
sS'msg_text'
p18
S'That time works for me.\n'
p19
sS'msg_reply_to_id_mime'
p20
S'<05B600A6-921D-440C-B0BD-4BE79552F09B@gmail.com>'
p21
sS'msg_label'
p22
(lp23
VIMPORTANT
p24
aVCATEGORY_PERSONAL
p25
aVINBOX
p26
asS'msg_cc'
p27
NsS'msg_bcc'
p28
Ns.