(dp1
S'msg_subject'
p2
S'Re: Chatting about LBS'
p3
sS'msg_from'
p4
S'Isaac Gross <isaac.gross@gmail.com>'
p5
sS'msg_to'
p6
S'Clara Marquardt <marquardt.clara@gmail.com>'
p7
sS'msg_inbox_outbox'
p8
S'inbox'
p9
sS'msg_id'
p10
V1615881bd497e9a1
p11
sS'msg_threadid'
p12
V161585b503709b1e
p13
sS'msg_date'
p14
S'Fri, 2 Feb 2018 13:52:31 -0800'
p15
sS'msg_id_mime'
p16
S'<CAP2-O2eF9HNiYtZFmaH=M3Hyz6TjLpQe_eytADG33uJJDFoZ4Q@mail.gmail.com>'
p17
sS'msg_text'
p18
S'Just sent you a calendar invite chat soon\n'
p19
sS'msg_reply_to_id_mime'
p20
S'<D8E8B115-307B-480F-9080-166FE6296FC8@gmail.com>'
p21
sS'msg_label'
p22
(lp23
VIMPORTANT
p24
aVCATEGORY_PERSONAL
p25
aVINBOX
p26
asS'msg_cc'
p27
NsS'msg_bcc'
p28
Ns.