(dp1
S'msg_subject'
p2
S'Re: Chatting about LBS'
p3
sS'msg_from'
p4
S'Christoph Mueller <cmueller.mba2019@london.edu>'
p5
sS'msg_to'
p6
S'Clara Marquardt <marquardt.clara@gmail.com>'
p7
sS'msg_inbox_outbox'
p8
S'inbox'
p9
sS'msg_id'
p10
V1617f059c4ae23ff
p11
sS'msg_threadid'
p12
V161671e529511d7a
p13
sS'msg_date'
p14
S'Sat, 10 Feb 2018 09:22:06 +0000'
p15
sS'msg_id_mime'
p16
S'<B7B63325-F113-4328-9F53-7EB0C11C5933@london.edu>'
p17
sS'msg_text'
p18
S'Hi Clara,\nWednesday at 2pm works well for me!\nI will give you a ring under your Skype name below. \nSpeak then,\nChristoph \nSent from my iPhone\n'
p19
sS'msg_reply_to_id_mime'
p20
S'<B37AF686-69B3-4981-AAF7-CF9954685017@gmail.com>'
p21
sS'msg_label'
p22
(lp23
VIMPORTANT
p24
aVCATEGORY_PERSONAL
p25
aVINBOX
p26
asS'msg_cc'
p27
NsS'msg_bcc'
p28
Ns.