(dp1
S'msg_subject'
p2
S'Security alert'
p3
sS'msg_from'
p4
S'Google <no-reply@accounts.google.com>'
p5
sS'msg_to'
p6
S'marquardt.clara@gmail.com'
p7
sS'msg_inbox_outbox'
p8
S'inbox'
p9
sS'msg_id'
p10
V160d857bc732304f
p11
sS'msg_threadid'
p12
V160d857bc732304f
p13
sS'msg_date'
p14
S'Tue, 9 Jan 2018 00:35:07 +0000 (UTC)'
p15
sS'msg_id_mime'
p16
S'<vSUc2nOfqrnbhw-meBLCZw@notifications.google.com>'
p17
sS'msg_text'
p18
S"Clara Marquardt\nNew device signed in to\nmarquardt.clara@gmail.com\nA new device just signed in to your Google Account. You're getting this\nemail to make sure it was you.\nCHECK ACTIVITY\n<https://accounts.google.com/AccountChooser?Email=marquardt.clara@gmail.com&continue=https://myaccount.google.com/new-device/nt/1515458107000?rfn%3D31%26rfnc%3D1%26eid%3D-4057772178526488553%26et%3D0%26asae%3D2%26anexp%3Dhsc-control_b>\n<https://accounts.google.com/AccountChooser?Email=marquardt.clara@gmail.com&continue=https://myaccount.google.com/new-device/nt/1515458107000?rfn%3D31%26rfnc%3D1%26eid%3D-4057772178526488553%26et%3D0%26asae%3D2%26anexp%3Dhsc-control_b>\nYou received this email to let you know about important changes to your\nGoogle Account and services.\n\xc2\xa9 2018 Google Inc.,1600 Amphitheatre Parkway, Mountain View, CA 94043, USA\net:31\n"
p19
sS'msg_reply_to_id_mime'
p20
Fnan
sS'msg_label'
p21
(lp22
VCATEGORY_PERSONAL
p23
aVINBOX
p24
asS'msg_cc'
p25
NsS'msg_bcc'
p26
Ns.