(dp1
S'msg_subject'
p2
S'Re: LBS Interview'
p3
sS'msg_from'
p4
S'Lisa Jaffre Christensen <lisachristensen214@gmail.com>'
p5
sS'msg_to'
p6
S'Clara Marquardt <marquardt.clara@gmail.com>'
p7
sS'msg_inbox_outbox'
p8
S'inbox'
p9
sS'msg_id'
p10
V1617c2a7620f6c6c
p11
sS'msg_threadid'
p12
V16176b391898735c
p13
sS'msg_date'
p14
S'Fri, 9 Feb 2018 14:03:31 -0600'
p15
sS'msg_id_mime'
p16
S'<29924838-61EA-4D5B-A421-3A59F631EEB0@gmail.com>'
p17
sS'msg_text'
p18
S'Hi Clara,  \nThanks for getting back to me.   Unfortunately, the week of 2/19 won\xe2\x80\x99t work for me due to travel.\nThe week of 2/26 should be better - perhaps on the morning of Friday, 3/2 @8:30.   I assume you live in the city - I live in the far northern Chicago suburbs.    In the past,  I\xe2\x80\x99ve interviewed candidates in Skokie which more or less in the middle of the two locations.\nExpect the interview to last around 1-1.5 hours.\nIf this is ok with you, I\xe2\x80\x99ll make the arrangements.\nLisa\n'
p19
sS'msg_reply_to_id_mime'
p20
S'<701B089F-CBA0-4D3C-B1A9-492DB1CEC56B@gmail.com>'
p21
sS'msg_label'
p22
(lp23
VIMPORTANT
p24
aVCATEGORY_PERSONAL
p25
aVINBOX
p26
asS'msg_cc'
p27
NsS'msg_bcc'
p28
Ns.