(dp1
S'msg_subject'
p2
S'Re:'
p3
sS'msg_from'
p4
S'alf zips <alfzips@gmail.com>'
p5
sS'msg_to'
p6
S'Clara Marquardt <marquardt.clara@gmail.com>'
p7
sS'msg_inbox_outbox'
p8
S'inbox'
p9
sS'msg_id'
p10
V160cb3ee070e153d
p11
sS'msg_threadid'
p12
V160cae524f17eafa
p13
sS'msg_date'
p14
S'Sat, 6 Jan 2018 12:33:01 +0100'
p15
sS'msg_id_mime'
p16
S'<CAF34eQH-W2xOEHnK2n0dEwg4BcmkWfs-G3i_2b09jHgzs=oPHA@mail.gmail.com>'
p17
sS'msg_text'
p18
S'Schlaf gut h\xc3\xbchnchen... ich \xc3\xbcbernehme due n\xc3\xb6chste schicht. Das ist der\nVorteil der globalen H\xc3\xbchner netzwerke  \xf0\x9f\x98\x97\n'
p19
sS'msg_reply_to_id_mime'
p20
S'<DF8D04DF-6C9C-4610-8175-A72278B7E50E@gmail.com>'
p21
sS'msg_label'
p22
(lp23
VIMPORTANT
p24
aVCATEGORY_PERSONAL
p25
aVINBOX
p26
asS'msg_cc'
p27
NsS'msg_bcc'
p28
Ns.