(dp1
S'msg_subject'
p2
S'Fwd: Talking with Dave Richards, Capria VC managing partner on\n Advancing the Next Generation of Impact Funds in Emerging Markets'
p3
sS'msg_from'
p4
S'Isaac Gross <isaac.gross@gmail.com>'
p5
sS'msg_to'
p6
S'Clara Marquardt <marquardt.clara@gmail.com>'
p7
sS'msg_inbox_outbox'
p8
S'inbox'
p9
sS'msg_id'
p10
V1617bf4f6f8cb44c
p11
sS'msg_threadid'
p12
V1617bf4f6f8cb44c
p13
sS'msg_date'
p14
S'Fri, 9 Feb 2018 11:05:05 -0800'
p15
sS'msg_id_mime'
p16
S'<CAP2-O2fQ_EhPXpE6DhR5VYCr=38XtRspXNzdSpMDuvgmENfkCg@mail.gmail.com>'
p17
sS'msg_text'
p18
S''
sS'msg_reply_to_id_mime'
p19
S'<255C0B110A5DB6A0FE85E5DA6A2760A7BF25B6DA328AC912CA135A4AA14D43B0@4BEBE5325C556AD063702EABBAD18B6C4C3B5E6854DDC01657788E1F428E314C.campusgroups.com>'
p20
sS'msg_label'
p21
(lp22
VIMPORTANT
p23
aVCATEGORY_PERSONAL
p24
aVINBOX
p25
asS'msg_cc'
p26
NsS'msg_bcc'
p27
Ns.