(dp1
S'msg_subject'
p2
S'Re: Chatting about Sloan'
p3
sS'msg_from'
p4
S'Jared Johnson <jrjohns@mit.edu>'
p5
sS'msg_to'
p6
S'Clara Marquardt <marquardt.clara@gmail.com>'
p7
sS'msg_inbox_outbox'
p8
S'inbox'
p9
sS'msg_id'
p10
V160f032a32a5a43f
p11
sS'msg_threadid'
p12
V160e74917f570ebf
p13
sS'msg_date'
p14
S'Sat, 13 Jan 2018 10:45:29 -0500'
p15
sS'msg_id_mime'
p16
S'<CACZbXavgVoOmW0rx-nvxEO-A3ipfY0Gz6+g=YS+UijrbzK_V8Q@mail.gmail.com>'
p17
sS'msg_text'
p18
S'Hey Clara,\nNo problem. I will have some time on Friday afternoon if that works for\nyou. Let me know.\nBest,\n'
p19
sS'msg_reply_to_id_mime'
p20
S'<B9050798-198C-4103-A886-8DE3F825A1B0@gmail.com>'
p21
sS'msg_label'
p22
(lp23
VIMPORTANT
p24
aVCATEGORY_PERSONAL
p25
aVINBOX
p26
asS'msg_cc'
p27
NsS'msg_bcc'
p28
Ns.