(dp1
S'msg_subject'
p2
S''
sS'msg_from'
p3
S'Clara Marquardt <cmarquardt@uchicago.edu>'
p4
sS'msg_to'
p5
S'"marquardt.clara@gmail.com" <marquardt.clara@gmail.com>'
p6
sS'msg_inbox_outbox'
p7
S'inbox'
p8
sS'msg_id'
p9
V16134ec0ba78fec7
p10
sS'msg_threadid'
p11
V16134ec0ba78fec7
p12
sS'msg_date'
p13
S'Sat, 27 Jan 2018 00:02:15 +0000'
p14
sS'msg_id_mime'
p15
S'<ca23eed2-91a7-4431-8324-76f0e040b90d@email.android.com>'
p16
sS'msg_text'
p17
S'\n'
sS'msg_reply_to_id_mime'
p18
Fnan
sS'msg_label'
p19
(lp20
VCATEGORY_PERSONAL
p21
aVINBOX
p22
asS'msg_cc'
p23
NsS'msg_bcc'
p24
Ns.