(dp1
S'msg_subject'
p2
S'Fwd: Your Whole Foods Market order confirmation'
p3
sS'msg_from'
p4
S'alf zips <alfzips@gmail.com>'
p5
sS'msg_to'
p6
S'Clara Marquardt <marquardt.clara@gmail.com>'
p7
sS'msg_inbox_outbox'
p8
S'inbox'
p9
sS'msg_id'
p10
V160d2be25e4d9801
p11
sS'msg_threadid'
p12
V160d2be25e4d9801
p13
sS'msg_date'
p14
S'Sun, 7 Jan 2018 23:29:23 +0100'
p15
sS'msg_id_mime'
p16
S'<CAF34eQHxqhVJcT-1Ax6L1FJZ9Q-h_VmFH8Rng9a22wBa9akNqA@mail.gmail.com>'
p17
sS'msg_text'
p18
S';)\nvon HUHN zu HUHN\ndamit empfehle ich mich als Assistant :)\n'
p19
sS'msg_reply_to_id_mime'
p20
S'<5a529d00396a_1bc23ff032295da8311929@0x11.449a.mailers.worker.instacart.customers.bg.pika.ac.mail>'
p21
sS'msg_label'
p22
(lp23
VIMPORTANT
p24
aVCATEGORY_PERSONAL
p25
aVINBOX
p26
asS'msg_cc'
p27
NsS'msg_bcc'
p28
Ns.