(dp1
S'msg_subject'
p2
S"Barry's Bootcamp - Spot Booked"
p3
sS'msg_from'
p4
S'FrontdeskRiverNorth@barrysbootcamp.com'
p5
sS'msg_to'
p6
S'marquardt.clara@gmail.com'
p7
sS'msg_inbox_outbox'
p8
S'inbox'
p9
sS'msg_id'
p10
V15fc267c49e7c980
p11
sS'msg_threadid'
p12
V15fc21c0fff65f1e
p13
sS'msg_date'
p14
S'Wed, 15 Nov 2017 20:18:20 -0500 (EST)'
p15
sS'msg_id_mime'
p16
S'<717888277.44950.1510795100089.JavaMail.nobody@127.0.0.1>'
p17
sS'msg_text'
p18
S"Dear Clara,You have been added to the following class:Chest, Back &amp; Abs in\nspot F-9 with Joe N. on Wed Nov 15 7:50 PM A class must be changed or canceled\nprior to 12 hours before the scheduled class time or it will be forfeited. You\nmust be physically present 5 minutes prior to the start of class or your spot\nmay be given away to waitlisted clients and you will be charged for the class.\nIf you have any questions or comments please contact us.\nBOOK A CLASS\nTHE STUDIOS\nINSTRUCTORS\nTHE WORKOUT\nGET ON THE LIST\nSHOP THE COLLECTION\nCopyright &amp; 2017 Barry's Bootcamp, All rights reserved           You are\nreceiving this because you opted in on our website\nOur mailing address\nis:Barry's Bootcamp                135 W 20th St.                New York, NY\n10011\n"
p19
sS'msg_reply_to_id_mime'
p20
Fnan
sS'msg_label'
p21
(lp22
VCATEGORY_PERSONAL
p23
aVINBOX
p24
asS'msg_cc'
p25
NsS'msg_bcc'
p26
Ns.