(dp1
S'msg_subject'
p2
S'Re: Connecting you with Clara - gender bias app'
p3
sS'msg_from'
p4
S'Cameron Cohen <cameron_cohen@college.harvard.edu>'
p5
sS'msg_to'
p6
S'Clara Marquardt <marquardt.clara@gmail.com>'
p7
sS'msg_inbox_outbox'
p8
S'inbox'
p9
sS'msg_id'
p10
V15fdfdeff088dcf2
p11
sS'msg_threadid'
p12
V15fd94f6ccdcbbd1
p13
sS'msg_date'
p14
S'Tue, 21 Nov 2017 10:37:31 -0800'
p15
sS'msg_id_mime'
p16
S'<313867AD-D00D-4EAF-A4D1-F89122C53DDF@college.harvard.edu>'
p17
sS'msg_text'
p18
S'Clara,\n10am LA time would be great! Looking forward to speaking as well. \nBest,\nCameron\n'
p19
sS'msg_reply_to_id_mime'
p20
S'<0A0FF6D1-4F16-4B76-A3E4-699ABE61D2AF@gmail.com>'
p21
sS'msg_label'
p22
(lp23
VIMPORTANT
p24
aVCATEGORY_PERSONAL
p25
aVINBOX
p26
asS'msg_cc'
p27
NsS'msg_bcc'
p28
Ns.