(dp1
S'msg_subject'
p2
S'Application Fee'
p3
sS'msg_from'
p4
S'London Business School <portal@london.edu>'
p5
sS'msg_to'
p6
S'Clara Marquardt <marquardt.clara@gmail.com>'
p7
sS'msg_inbox_outbox'
p8
S'inbox'
p9
sS'msg_id'
p10
V160bae0948d639a5
p11
sS'msg_threadid'
p12
V160bae0948d639a5
p13
sS'msg_date'
p14
S'Wed, 3 Jan 2018 07:16:07 +0000 (GMT)'
p15
sS'msg_id_mime'
p16
S'<1905021861.5932.1514963767324.JavaMail.tomcat7@ldnfpa-tmcat04.london.edu>'
p17
sS'msg_text'
p18
S'<p>Thanks very much for your payment. We can confirm that your credit card payment has been securely\nprocessed by VeriFone.</p>\n<p>Your payment information:</p>\n<ul style="list-style-type: none;">\n<li>Date:\t\t\t\t03/01/2018</li>\n<li>Amount:\t\t\t\t190.00 GBP</li>\n<li>VeriFone Payment Reference:\t\t\t223026138</li>\n</ul>\n<ul style="list-style-type: none;">\n<li>Applicant\'s name:\t\tClara Marquardt</li>\n<li>Applicant\'s email address:\tmarquardt.clara@gmail.com</li>\n</ul>\n<p>Thank you for applying to London Business School</p>\n<p>For London Business School reference</p>\n<ul style="list-style-type: none;">\n<li>Online application ID                         : 18633320 - Marquardt/Clara (38)</li>\n</ul>\n<br/><br/><br/><br/>\n<p>This email is automatically generated.  Please do not reply to this email as replies to this mailbox are not monitored.</p>\n'
p19
sS'msg_reply_to_id_mime'
p20
Fnan
sS'msg_label'
p21
(lp22
VCATEGORY_PERSONAL
p23
aVINBOX
p24
asS'msg_cc'
p25
NsS'msg_bcc'
p26
Ns.