(dp1
S'msg_subject'
p2
S'Re: MBA Update'
p3
sS'msg_from'
p4
S'Narinder Singh <i@narinder.com>'
p5
sS'msg_to'
p6
S'Clara Marquardt <marquardt.clara@gmail.com>'
p7
sS'msg_inbox_outbox'
p8
S'inbox'
p9
sS'msg_id'
p10
V1615477f4c3a317e
p11
sS'msg_threadid'
p12
V1615476a23f8f05f
p13
sS'msg_date'
p14
S'Fri, 02 Feb 2018 03:03:09 +0000'
p15
sS'msg_id_mime'
p16
S'<CAN0c9+ntFNc_+zWzjwwmWBVB-nTeDrmL-cPN-vF6R6nMRYOh1A@mail.gmail.com>'
p17
sS'msg_text'
p18
S"That's great news!\n"
p19
sS'msg_reply_to_id_mime'
p20
S'<38A5F5C3-9CCC-4BAB-B8DF-2C02269DF76E@gmail.com>'
p21
sS'msg_label'
p22
(lp23
VIMPORTANT
p24
aVCATEGORY_PERSONAL
p25
aVINBOX
p26
asS'msg_cc'
p27
NsS'msg_bcc'
p28
Ns.