(dp1
S'msg_subject'
p2
S'Re:'
p3
sS'msg_from'
p4
S'alf zips <alfzips@gmail.com>'
p5
sS'msg_to'
p6
S'Clara Marquardt <marquardt.clara@gmail.com>'
p7
sS'msg_inbox_outbox'
p8
S'inbox'
p9
sS'msg_id'
p10
V160f04ff43cc586d
p11
sS'msg_threadid'
p12
V160ed7dc05ba4b33
p13
sS'msg_date'
p14
S'Sat, 13 Jan 2018 17:17:38 +0100'
p15
sS'msg_id_mime'
p16
S'<CAF34eQGuOjihfn1LELB1gEoUS3cvEb_hwvW22AONty7UpiNcxw@mail.gmail.com>'
p17
sS'msg_text'
p18
S'H\xc3\xa4hnchen wenn du mehr Haare abschneidet siehst bald so aus.... ich melde\nmich abends noch \xf0\x9f\x90\x8c\nAm 13.01.2018 04:08 schrieb "Clara Marquardt" <marquardt.clara@gmail.com>:\n'
p19
sS'msg_reply_to_id_mime'
p20
S'<CAC77MjK+z4AJ5ze9t4cnxbG6FeA6PUi6i7M+mvCaHAes4Wxnwg@mail.gmail.com>'
p21
sS'msg_label'
p22
(lp23
VIMPORTANT
p24
aVCATEGORY_PERSONAL
p25
aVINBOX
p26
asS'msg_cc'
p27
NsS'msg_bcc'
p28
Ns.