(dp1
S'msg_subject'
p2
S'Re:'
p3
sS'msg_from'
p4
S'alf zips <alfzips@gmail.com>'
p5
sS'msg_to'
p6
S'Clara Marquardt <marquardt.clara@gmail.com>'
p7
sS'msg_inbox_outbox'
p8
S'inbox'
p9
sS'msg_id'
p10
V161a23e3b21ee62f
p11
sS'msg_threadid'
p12
V161863f64ed577d3
p13
sS'msg_date'
p14
S'Sat, 17 Feb 2018 06:30:41 +0100'
p15
sS'msg_id_mime'
p16
S'<CAF34eQG=6v72=kkvN-6zsOpi+yc9Cou7=46rW+9u6izpx=oEUA@mail.gmail.com>'
p17
sS'msg_text'
p18
S'liebes h\xc3\xbchnchen hier ein entwurf...\n:)\n'
p19
sS'msg_reply_to_id_mime'
p20
S'<FFB8A979-187C-4C70-B3CB-39BB75FD7428@gmail.com>'
p21
sS'msg_label'
p22
(lp23
VIMPORTANT
p24
aVCATEGORY_PERSONAL
p25
aVINBOX
p26
asS'msg_cc'
p27
NsS'msg_bcc'
p28
Ns.