(dp1
S'msg_subject'
p2
S'Fwd: Thanks for your RSVP!'
p3
sS'msg_from'
p4
S'Shreyas Lakhtakia <shreyaslakhtakia@gmail.com>'
p5
sS'msg_to'
p6
S'Clara Marquardt <marquardt.clara@gmail.com>'
p7
sS'msg_inbox_outbox'
p8
S'inbox'
p9
sS'msg_id'
p10
V16168917ba036df2
p11
sS'msg_threadid'
p12
V16168917ba036df2
p13
sS'msg_date'
p14
S'Tue, 06 Feb 2018 00:43:28 +0000'
p15
sS'msg_id_mime'
p16
S'<CALEjPT-8MsqsdE5JULDFPkD6BHhfFW9EdaPQVR=QB-pfUzjTrg@mail.gmail.com>'
p17
sS'msg_text'
p18
S''
sS'msg_reply_to_id_mime'
p19
S'<CAJCiF6pRhfuRC1Red-p0C7Jh=g+K+VmGPsEg-tOXYqaCFUUtRw@mail.gmail.com>'
p20
sS'msg_label'
p21
(lp22
VIMPORTANT
p23
aVCATEGORY_PERSONAL
p24
aVINBOX
p25
asS'msg_cc'
p26
NsS'msg_bcc'
p27
Ns.