(dp1
S'msg_subject'
p2
S'=?UTF-8?Q?Fwd=3A_Yale_Club_Young_Members=E2=80=99_Presents_Casablanca=3A?=\n\t=?UTF-8?Q?_A_Black_=26_White_Ball?='
p3
sS'msg_from'
p4
S'Shreyas Lakhtakia <shreyaslakhtakia@gmail.com>'
p5
sS'msg_to'
p6
S'Clara Marquardt <marquardt.clara@gmail.com>'
p7
sS'msg_inbox_outbox'
p8
S'inbox'
p9
sS'msg_id'
p10
V1618ca16f61506c4
p11
sS'msg_threadid'
p12
V1618ca16f61506c4
p13
sS'msg_date'
p14
S'Tue, 13 Feb 2018 00:47:14 +0000'
p15
sS'msg_id_mime'
p16
S'<CALEjPT_SF+-KgF-fYMUDgsJL6bHAcLLBPNvo+6Hnm0waPXpiTQ@mail.gmail.com>'
p17
sS'msg_text'
p18
S'Wanna come be a douchebag with me? ;) :*\n'
p19
sS'msg_reply_to_id_mime'
p20
S'<1518469210388.24800723.38267026.17741745987@backend.mailer.clubhouseonline-e3.com>'
p21
sS'msg_label'
p22
(lp23
VIMPORTANT
p24
aVCATEGORY_PERSONAL
p25
aVINBOX
p26
asS'msg_cc'
p27
NsS'msg_bcc'
p28
Ns.