(dp1
S'msg_subject'
p2
S'Purchase of London Business School Interview Primer, Chicago Booth\n School of Business Interview Primer'
p3
sS'msg_from'
p4
S'mbaMission Purchase <order@mbamission.com>'
p5
sS'msg_to'
p6
S'marquardt.clara@gmail.com'
p7
sS'msg_inbox_outbox'
p8
S'inbox'
p9
sS'msg_id'
p10
V161583cc717bfd75
p11
sS'msg_threadid'
p12
V161583cc06988a3c
p13
sS'msg_date'
p14
S'Fri, 02 Feb 2018 20:37:12 +0000'
p15
sS'msg_id_mime'
p16
S'<20180202203712.1.8C3440C694D5727D@mg.mbamission.com>'
p17
sS'msg_text'
p18
S'\n<p>Thank you for purchasing a guide from the mbaMission store!</p>\n<p>Attached to this email is yours mbamission-london-business-school-interview-primer.pdf, mbam-primer-interview-chicago-booth-fa.pdf</p>\n<p>For security purposes, each page of the attached guide is marked with your name and email address. We ask that you please do not share or repost this guide, and reserve it strictly for your personal use.</p>\n<p>If you have any questions, please contact us at <a href="mailto:info@mbamission.com">info@mbamission.com</a>.</p>\n<p>Best Regards,<br>The <strong><span style="color:#d41317">mba</span><span style="color:#585857">Mission</span></strong> team</p>'
p19
sS'msg_reply_to_id_mime'
p20
Fnan
sS'msg_label'
p21
(lp22
VCATEGORY_PERSONAL
p23
aVINBOX
p24
asS'msg_cc'
p25
NsS'msg_bcc'
p26
Ns.