(dp1
S'msg_subject'
p2
S'Fwd: Applicant - Research Assistant for a Project on Gender Bias and\n Machine Learning'
p3
sS'msg_from'
p4
S'"Unverzagt, Eric" <eunverz@fas.harvard.edu>'
p5
sS'msg_to'
p6
S'"marquardt.clara@gmail.com" <marquardt.clara@gmail.com>'
p7
sS'msg_inbox_outbox'
p8
S'inbox'
p9
sS'msg_id'
p10
V1614df3df8281cbe
p11
sS'msg_threadid'
p12
V1614df3df8281cbe
p13
sS'msg_date'
p14
S'Wed, 31 Jan 2018 20:41:22 +0000'
p15
sS'msg_id_mime'
p16
S'<SN2PR07MB2494484898CCF78A62A3795FE5FB0@SN2PR07MB2494.namprd07.prod.outlook.com>'
p17
sS'msg_text'
p18
S'Hi Clara,\nI hope all is going well.\nCan you please follow up on this one?\nThanks,\nEric\nGet Outlook for iOS<https://aka.ms/o0ukef>\n'
p19
sS'msg_reply_to_id_mime'
p20
S'<CA+PgBn21phbav4LnT81A9TcO7tPHRDcMsqSPPRHESP+iKPA6iA@mail.gmail.com>'
p21
sS'msg_label'
p22
(lp23
VIMPORTANT
p24
aVCATEGORY_PERSONAL
p25
aVINBOX
p26
asS'msg_cc'
p27
NsS'msg_bcc'
p28
Ns.