(dp1
S'msg_subject'
p2
S'Re: Re: A Message from Amazon Customer Service'
p3
sS'msg_from'
p4
S'"Amazon.com" <nobody@bounces.amazon.com>'
p5
sS'msg_to'
p6
S'Clara Marquardt <marquardt.clara@gmail.com>'
p7
sS'msg_inbox_outbox'
p8
S'inbox'
p9
sS'msg_id'
p10
V161b6c3a6b640ae1
p11
sS'msg_threadid'
p12
V161b2ad22067463c
p13
sS'msg_date'
p14
S'Wed, 21 Feb 2018 05:08:50 GMT'
p15
sS'msg_id_mime'
p16
S'<auto-reply-1275-1519189730@email-autorespond-1e-f7c0a0b3.us-east-1.amazon.com>'
p17
sS'msg_text'
p18
S"Hello,\nThis is an automatic e-mail to confirm we have received your e-mail \nand a Customer Service associate will be in touch within the next \n6 hours. In the meantime, please visit our Help Pages:\nhttps://www.amazon.com/help\nPlease note: This e-mail was sent from a notification-only \naddress that can't accept incoming e-mail. Please don't reply to \nthis message.\nRegards,\nCustomer Service Department\nAmazon.com\nP.S. You received this message because Amazon.com received the following\nmessage:\nDate: Tue, 20 Feb 2018 23:07:50 -0600\n"
p19
sS'msg_reply_to_id_mime'
p20
S'<CCAB924B-1D4B-4C1C-A808-73100EE06704@gmail.com>'
p21
sS'msg_label'
p22
(lp23
VIMPORTANT
p24
aVCATEGORY_PERSONAL
p25
aVINBOX
p26
asS'msg_cc'
p27
NsS'msg_bcc'
p28
Ns.