(dp1
S'msg_subject'
p2
S'Re: Clara Marquardt paid you $37.00 on Venmo'
p3
sS'msg_from'
p4
S'Shreyas Lakhtakia <shreyaslakhtakia@gmail.com>'
p5
sS'msg_to'
p6
S'Clara Marquardt <marquardt.clara@gmail.com>'
p7
sS'msg_inbox_outbox'
p8
S'inbox'
p9
sS'msg_id'
p10
V1616899e64619063
p11
sS'msg_threadid'
p12
V160c43f6689f6e52
p13
sS'msg_date'
p14
S'Tue, 06 Feb 2018 00:52:40 +0000'
p15
sS'msg_id_mime'
p16
S'<CALEjPT_uZ+AGxWmiOMt+uEu3jT6d-c_U3kccO=RWZEVpoi1j7A@mail.gmail.com>'
p17
sS'msg_text'
p18
S"Just seeing this email. It's so sweet. Thank you honey, and see you so soon!\nKisses and hugs,\nShreyas\n"
p19
sS'msg_reply_to_id_mime'
p20
S'<CAC77MjK0bdpZLUcuV_1r3M77nVwa99T5Mn1_deezTSDszdbyAQ@mail.gmail.com>'
p21
sS'msg_label'
p22
(lp23
VIMPORTANT
p24
aVCATEGORY_PERSONAL
p25
aVINBOX
p26
asS'msg_cc'
p27
NsS'msg_bcc'
p28
Ns.