(dp1
S'msg_subject'
p2
S'Re:'
p3
sS'msg_from'
p4
S'alf zips <alfzips@gmail.com>'
p5
sS'msg_to'
p6
S'Clara Marquardt <marquardt.clara@gmail.com>'
p7
sS'msg_inbox_outbox'
p8
S'inbox'
p9
sS'msg_id'
p10
V15fda627cd6f23a4
p11
sS'msg_threadid'
p12
V15fd9ef5b01fada8
p13
sS'msg_date'
p14
S'Mon, 20 Nov 2017 18:03:26 +0100'
p15
sS'msg_id_mime'
p16
S'<CAF34eQEgj_C3a7OcYP3Md9uVOeGeuvgZdCSca3RT-QgtBSxF_A@mail.gmail.com>'
p17
sS'msg_text'
p18
S'\n'
sS'msg_reply_to_id_mime'
p19
S'<6777CFB9-5CD7-496F-BB7F-111AED8A74AA@gmail.com>'
p20
sS'msg_label'
p21
(lp22
VIMPORTANT
p23
aVCATEGORY_PERSONAL
p24
aVINBOX
p25
asS'msg_cc'
p26
NsS'msg_bcc'
p27
Ns.