(dp1
S'msg_subject'
p2
S'Re:'
p3
sS'msg_from'
p4
S'alf zips <alfzips@gmail.com>'
p5
sS'msg_to'
p6
S'Clara Marquardt <marquardt.clara@gmail.com>'
p7
sS'msg_inbox_outbox'
p8
S'inbox'
p9
sS'msg_id'
p10
V1611ed4c94bacac0
p11
sS'msg_threadid'
p12
V1611b3e5a3bd27d6
p13
sS'msg_date'
p14
S'Mon, 22 Jan 2018 18:05:14 +0100'
p15
sS'msg_id_mime'
p16
S'<CAF34eQFZp4g7Vu8kFUTroNKktCwaqqHib7tDnQWTiJruveLeXQ@mail.gmail.com>'
p17
sS'msg_text'
p18
S'H\xc3\xa4hnchen heute Abend schnattern?\n\xf0\x9f\x98\x8e\xf0\x9f\x98\x8d\nAm 22.01.2018 04:53 schrieb "Clara Marquardt" <marquardt.clara@gmail.com>:\n'
p19
sS'msg_reply_to_id_mime'
p20
S'<CAC77Mj+FDBMXVtx1eGoRMy7A1JeGGjm0N_xom5L8M=aDCTZWxQ@mail.gmail.com>'
p21
sS'msg_label'
p22
(lp23
VIMPORTANT
p24
aVCATEGORY_PERSONAL
p25
aVINBOX
p26
asS'msg_cc'
p27
NsS'msg_bcc'
p28
Ns.