(dp1
S'msg_subject'
p2
S"Re: You've been invited to an interview for MBA2020 - Round 2"
p3
sS'msg_from'
p4
S'alf zips <alfzips@gmail.com>'
p5
sS'msg_to'
p6
S'Clara Marquardt <marquardt.clara@gmail.com>'
p7
sS'msg_inbox_outbox'
p8
S'inbox'
p9
sS'msg_id'
p10
V16167a985473394a
p11
sS'msg_threadid'
p12
V161666eb6d60a3b4
p13
sS'msg_date'
p14
S'Mon, 5 Feb 2018 21:30:16 +0100'
p15
sS'msg_id_mime'
p16
S'<CAF34eQEPbqPf1xCmG1xwus6usYeL-mtc_FcbgAvcAv8ggG_xEg@mail.gmail.com>'
p17
sS'msg_text'
p18
S'liebes H\xc3\xbchnchen\nimmer daran denken NICHT eingeladen zu warden ware zwar zeitsparender aber\nbestimmt nicht besser.\nIch mach mir Gedanken :)\n'
p19
sS'msg_reply_to_id_mime'
p20
S'<9419E1AD-0697-42C7-89B9-D6FDDC5F740C@gmail.com>'
p21
sS'msg_label'
p22
(lp23
VIMPORTANT
p24
aVCATEGORY_PERSONAL
p25
aVINBOX
p26
asS'msg_cc'
p27
NsS'msg_bcc'
p28
Ns.