(dp1
S'msg_subject'
p2
S'Fwd: Your Whole Foods Market order confirmation'
p3
sS'msg_from'
p4
S'alf zips <alfzips@gmail.com>'
p5
sS'msg_to'
p6
S'Clara Marquardt <marquardt.clara@gmail.com>'
p7
sS'msg_inbox_outbox'
p8
S'inbox'
p9
sS'msg_id'
p10
V160d7ba0c28fb263
p11
sS'msg_threadid'
p12
V160d2be25e4d9801
p13
sS'msg_date'
p14
S'Mon, 8 Jan 2018 22:43:01 +0100'
p15
sS'msg_id_mime'
p16
S'<CAF34eQFVDxRivorPjAmyS1JQC5KDRT86_01N98qyfW4ELTjMpg@mail.gmail.com>'
p17
sS'msg_text'
p18
S'Liebes h\xc3\xbchnchen\nDa es so lustig war kommt Dein freund heute zum abendessen....nach 7 -8 und\nbringt leckere sachen mit .... do war dss damals als die amis schokolade\n\xc3\xbcber Berlin abwarfen \xf0\x9f\x98\x97\nAber keine angst kommt jetzt nicht jeden Tag \xf0\x9f\x98\x8e\n'
p19
sS'msg_reply_to_id_mime'
p20
S'<5a53e3ecf3038_43be2ab9789e110810335e@0x0b.ef5d.mailers.worker.instacart.customers.bg.pika.ac.mail>'
p21
sS'msg_label'
p22
(lp23
VIMPORTANT
p24
aVCATEGORY_PERSONAL
p25
aVINBOX
p26
asS'msg_cc'
p27
NsS'msg_bcc'
p28
Ns.