(dp1
S'msg_subject'
p2
S'Re: Cron <sx541@rgs05>\n /data/zolab/edw/edw_exploration/code/project/git_backup.sh'
p3
sS'msg_from'
p4
S'"Lakhtakia, Shreyas" <slakhtakia@bwh.harvard.edu>'
p5
sS'msg_to'
p6
S'Clara Marquardt <marquardt.clara@gmail.com>'
p7
sS'msg_inbox_outbox'
p8
S'inbox'
p9
sS'msg_id'
p10
V160c44f83c0af8cb
p11
sS'msg_threadid'
p12
V160bc34aac7ba476
p13
sS'msg_date'
p14
S'Fri, 5 Jan 2018 03:13:49 +0000'
p15
sS'msg_id_mime'
p16
S'<CY4PR04MB115814AD85CCE6CAC415B3CA821C0@CY4PR04MB1158.namprd04.prod.outlook.com>'
p17
sS'msg_text'
p18
S'Lol okay\n'
p19
sS'msg_reply_to_id_mime'
p20
S'<82F1A4A4-F085-4C44-AF1B-0EDD14457552@gmail.com>'
p21
sS'msg_label'
p22
(lp23
VIMPORTANT
p24
aVCATEGORY_PERSONAL
p25
aVINBOX
p26
asS'msg_cc'
p27
NsS'msg_bcc'
p28
Ns.