(dp1
S'msg_subject'
p2
S'MBA application confirmation'
p3
sS'msg_from'
p4
S'<apply.mba@london.edu>'
p5
sS'msg_to'
p6
S'<marquardt.clara@gmail.com>'
p7
sS'msg_inbox_outbox'
p8
S'inbox'
p9
sS'msg_id'
p10
V160badf12066aa4d
p11
sS'msg_threadid'
p12
V160badf12066aa4d
p13
sS'msg_date'
p14
S'Wed, 3 Jan 2018 07:14:27 -0000'
p15
sS'msg_id_mime'
p16
S'<DBA6414045564944BBEB30407FA84D6B@london.campus.london.edu>'
p17
sS'msg_text'
p18
S"Dear Ms Marquardt\nThank you for submitting your online application to the Full-time MBA\nProgramme at London Business School. We are delighted to acknowledge\nreceipt of this.\nWe are looking forward to reading your application and learning more\nabout you. Here are a few pieces of important information that you need\nto know about our process:\nAdditional application materials\nIf you have not uploaded your transcripts online you can send your\ntranscripts to us by e-mail to apply.mba@london.edu Any supplementary\nmaterials can also be sent to this email address. Hard copies of any\ntranscripts or supplementary information are to be sent only if you are\nadmitted onto the MBA Programme. \nDue to the very high volume of mail received, we may not be able to\nconfirm receipt of test scores or university transcripts. \nPlease note that before your file is reviewed by the Admissions\nCommittee, we will notify you if there is anything missing from your\napplication. However, your application will ultimately be reviewed by\nthe Admissions Committee regardless of whether it is complete or\nincomplete. As you are aware, it is the applicant's responsibility to\nensure applications are completed by the Round deadline. A decision as\nto whether to proceed with your application to interview stage will be\nmade on the basis of the information submitted, if the Admissions\nCommittee are unable to make a decision without a complete application,\nwe will be in touch.\nApplication fee payment\nApplications are only reviewed once the Admissions team has received\nthe Application Fee. If you have not already done so, please to pay\nonline.\nTo pay online,\n*\tvisit https://interact.london.edu/\n<http://interact.london.edu/> \n*\tlogin using your username and password\n*\tselect 'My profile' then 'Applications'\n*\tclick 'Show Application' for your MBA application and then\nclick the 'Pay fee online' button under your MBA application\n*\tfollow instructions for payment by credit card.\nIf you experience any issues with payment, please contact the MBA\nAdmissions Team as soon as possible via apply.mba@london.edu \nInvitation to interview\nPlease remember that candidates are only invited to interview if\nselected by the Admissions Committee. All decisions are communicated\nvia email only. Details of our admissions procedure can be found both\nin the application guidelines and is posted on our website\nhttp://www.london.edu/programmes/mba/applying.html\n<http://www.london.edu/programmes/mba/applying.html> \nAdmission dates\nWe operate a staged admissions process. The deadlines for different\nrounds can be found on our website at\nhttp://www.london.edu/programmes/mba/applying.html\n<http://www.london.edu/programmes/mba/applying.html> \nPlease note that decisions can sometimes be sent out quite late in the\nevenings on deadline days. However, if you have not heard from us by\nthe published date we do encourage you to contact us at\napply.mba@london.edu or call +44 (0)20 7000 7525.\nOnce again, thank you for your application. We look forward to reading\nit!\nThe MBA Recruitment & Admissions Team\nLondon Business School\nRegent's Park \nLondon, NW1 4SA\nUnited Kingdom\nhttp://www.london.edu/mba\n\n"
p19
sS'msg_reply_to_id_mime'
p20
Fnan
sS'msg_label'
p21
(lp22
VCATEGORY_PERSONAL
p23
aVINBOX
p24
asS'msg_cc'
p25
NsS'msg_bcc'
p26
Ns.