(dp1
S'msg_subject'
p2
S'Re: Chatting about Sloan'
p3
sS'msg_from'
p4
S'Lara Ortiz-Luis <lyortizluis@gmail.com>'
p5
sS'msg_to'
p6
S'Clara Marquardt <marquardt.clara@gmail.com>'
p7
sS'msg_inbox_outbox'
p8
S'inbox'
p9
sS'msg_id'
p10
V160e786eaac87ace
p11
sS'msg_threadid'
p12
V160de66ec293d480
p13
sS'msg_date'
p14
S'Thu, 11 Jan 2018 23:20:54 +0000'
p15
sS'msg_id_mime'
p16
S'<CAPTB0ry4G0D-kbWvJyGnMA8OajqZGNO8P=-Di21YhxWfhh6oXA@mail.gmail.com>'
p17
sS'msg_text'
p18
S"Great! Let's do 9am on the 19th Sydney time. Mind sending a cal invite?\n"
p19
sS'msg_reply_to_id_mime'
p20
S'<B660EAA7-3F63-45B1-9DB6-AFA71FBDC945@gmail.com>'
p21
sS'msg_label'
p22
(lp23
VIMPORTANT
p24
aVCATEGORY_PERSONAL
p25
aVINBOX
p26
asS'msg_cc'
p27
NsS'msg_bcc'
p28
Ns.