(dp1
S'msg_subject'
p2
S'Re:'
p3
sS'msg_from'
p4
S'alf zips <alfzips@gmail.com>'
p5
sS'msg_to'
p6
S'Clara Marquardt <marquardt.clara@gmail.com>'
p7
sS'msg_inbox_outbox'
p8
S'inbox'
p9
sS'msg_id'
p10
V160a8bc580715e2b
p11
sS'msg_threadid'
p12
V160a71c0a032bb91
p13
sS'msg_date'
p14
S'Sat, 30 Dec 2017 19:43:22 +0100'
p15
sS'msg_id_mime'
p16
S'<CAF34eQFqsNN=gwNifp1R0U9eSqG721c6Cirw5twdpzTuV9J+Cw@mail.gmail.com>'
p17
sS'msg_text'
p18
S'Ich lese es mir nachher dutcj mein H\xc3\xbchnchen \xf0\x9f\x98\x97\n'
p19
sS'msg_reply_to_id_mime'
p20
S'<FC21FF32-1129-4C74-8F01-53CEF376A07E@gmail.com>'
p21
sS'msg_label'
p22
(lp23
VIMPORTANT
p24
aVCATEGORY_PERSONAL
p25
aVINBOX
p26
asS'msg_cc'
p27
NsS'msg_bcc'
p28
Ns.