(dp1
S'msg_subject'
p2
S'Re: Applicant - Research Assistant for a Project on Gender Bias and\n Machine Learning'
p3
sS'msg_from'
p4
S'Sarah Schwartzmeyer <sarah.schwartzmeyer@gmail.com>'
p5
sS'msg_to'
p6
S'Clara Marquardt <marquardt.clara@gmail.com>'
p7
sS'msg_inbox_outbox'
p8
S'inbox'
p9
sS'msg_id'
p10
V161502d7ede9a55f
p11
sS'msg_threadid'
p12
V1614df3df8281cbe
p13
sS'msg_date'
p14
S'Thu, 1 Feb 2018 09:03:33 +0200'
p15
sS'msg_id_mime'
p16
S'<CA+PgBn2Bb3ftiirkrum3HRaNa4pyxUUGoKAbQmC3xDdn3ZZwUw@mail.gmail.com>'
p17
sS'msg_text'
p18
S'Dear Clara,\nThank you so much for your quick response! Please do not hesitate to reach\nout if a new role becomes available.\nBest of luck with your research!\nSincerely,\nSarah\nOn Wed, Jan 31, 2018 at 11:37 PM, Clara Marquardt <marquardt.clara@gmail.com\r'
p19
sS'msg_reply_to_id_mime'
p20
S'<BD581279-4CAD-47F3-9B61-E02F2EE6ABAF@gmail.com>'
p21
sS'msg_label'
p22
(lp23
VIMPORTANT
p24
aVCATEGORY_PERSONAL
p25
aVINBOX
p26
asS'msg_cc'
p27
NsS'msg_bcc'
p28
Ns.