(dp1
S'msg_subject'
p2
S'Re:'
p3
sS'msg_from'
p4
S'alf zips <alfzips@gmail.com>'
p5
sS'msg_to'
p6
S'Clara Marquardt <marquardt.clara@gmail.com>'
p7
sS'msg_inbox_outbox'
p8
S'inbox'
p9
sS'msg_id'
p10
V161459016f4a0ae5
p11
sS'msg_threadid'
p12
V1613b5cfddc33832
p13
sS'msg_date'
p14
S'Tue, 30 Jan 2018 06:35:24 +0100'
p15
sS'msg_id_mime'
p16
S'<CAF34eQH9qA5jiVwr3bM+5Y+aTTGn95pNO6-vfdJ1E+zXBa0AhQ@mail.gmail.com>'
p17
sS'msg_text'
p18
S'liebes H\xc3\xbchnchen\nhier noch mal meine text etwas abgewandelt. Und ich finde das fokussiert\nauf die Begeisterung udn auf das thema des search nach Alumni...\nlieb dich.\n'
p19
sS'msg_reply_to_id_mime'
p20
S'<1162557A-5DD3-4DD5-AA3B-22007F217D4F@gmail.com>'
p21
sS'msg_label'
p22
(lp23
VIMPORTANT
p24
aVCATEGORY_PERSONAL
p25
aVINBOX
p26
asS'msg_cc'
p27
NsS'msg_bcc'
p28
Ns.