(dp1
S'msg_subject'
p2
S'Re: [Topcoder Connect] Development Phase Start!'
p3
sS'msg_from'
p4
S'Bec Weeks <weeks.rebecca@gmail.com>'
p5
sS'msg_to'
p6
S'Clara Marquardt <marquardt.clara@gmail.com>'
p7
sS'msg_inbox_outbox'
p8
S'inbox'
p9
sS'msg_id'
p10
V161778e499a9c6f4
p11
sS'msg_threadid'
p12
V1616debb30436f6b
p13
sS'msg_date'
p14
S'Thu, 08 Feb 2018 22:34:18 +0000'
p15
sS'msg_id_mime'
p16
S'<CAPp_zur6hvHYHK+-HBKL_iz=w19wGozoh5a_4ADd6jH-T=e5FA@mail.gmail.com>'
p17
sS'msg_text'
p18
S'Fingers crossed they can speed up! Really appreciate your input here,\nthanks Clara!!!\n'
p19
sS'msg_reply_to_id_mime'
p20
S'<A8D4E9E2-10AD-4703-A9A6-4E13559F2801@gmail.com>'
p21
sS'msg_label'
p22
(lp23
VIMPORTANT
p24
aVCATEGORY_PERSONAL
p25
aVINBOX
p26
asS'msg_cc'
p27
NsS'msg_bcc'
p28
Ns.