(dp1
S'msg_subject'
p2
S'Re:'
p3
sS'msg_from'
p4
S'alf zips <alfzips@gmail.com>'
p5
sS'msg_to'
p6
S'Clara Marquardt <marquardt.clara@gmail.com>'
p7
sS'msg_inbox_outbox'
p8
S'inbox'
p9
sS'msg_id'
p10
V160cd068cc1d8941
p11
sS'msg_threadid'
p12
V160cae524f17eafa
p13
sS'msg_date'
p14
S'Sat, 6 Jan 2018 20:50:44 +0100'
p15
sS'msg_id_mime'
p16
S'<CAF34eQHwsiizc0W51_t22iXLJYgc7Xnho7-9vtXBx-UJmKSugA@mail.gmail.com>'
p17
sS'msg_text'
p18
S'hallo H\xc3\xbchnchen\nich habe ien ppar andere Ideen... hoffnetlcih f\xc3\xbchrt das nicht zu mehr\nverwirrung\nIch bin am Skype ;)\n'
p19
sS'msg_reply_to_id_mime'
p20
S'<814CF54E-17A8-479E-B1AF-9189BB1CE6E8@gmail.com>'
p21
sS'msg_label'
p22
(lp23
VIMPORTANT
p24
aVCATEGORY_PERSONAL
p25
aVINBOX
p26
asS'msg_cc'
p27
NsS'msg_bcc'
p28
Ns.