(dp1
S'msg_subject'
p2
S'Re:'
p3
sS'msg_from'
p4
S'alf zips <alfzips@gmail.com>'
p5
sS'msg_to'
p6
S'Clara Marquardt <marquardt.clara@gmail.com>'
p7
sS'msg_inbox_outbox'
p8
S'inbox'
p9
sS'msg_id'
p10
V15feda703f77cd55
p11
sS'msg_threadid'
p12
V15fead70377e35d3
p13
sS'msg_date'
p14
S'Fri, 24 Nov 2017 11:51:04 +0100'
p15
sS'msg_id_mime'
p16
S'<CAF34eQGuwkWxb0qPPES+8e00QFg=RD6E5Fn2aETRKK91pPDZ0Q@mail.gmail.com>'
p17
sS'msg_text'
p18
S'H\xc3\xbchnchen schon wach?\xf0\x9f\x98\x8e\nRentner langweilt sich und wartet auf dein Text \xf0\x9f\x98\x97\n'
p19
sS'msg_reply_to_id_mime'
p20
S'<00AE338E-7577-4D5B-A03C-681166A1599A@gmail.com>'
p21
sS'msg_label'
p22
(lp23
VIMPORTANT
p24
aVCATEGORY_PERSONAL
p25
aVINBOX
p26
asS'msg_cc'
p27
NsS'msg_bcc'
p28
Ns.