(dp1
S'msg_subject'
p2
S'Re:'
p3
sS'msg_from'
p4
S'alf zips <alfzips@gmail.com>'
p5
sS'msg_to'
p6
S'Clara Marquardt <marquardt.clara@gmail.com>'
p7
sS'msg_inbox_outbox'
p8
S'inbox'
p9
sS'msg_id'
p10
V1612c4406b9462aa
p11
sS'msg_threadid'
p12
V1612c3325a3600c3
p13
sS'msg_date'
p14
S'Thu, 25 Jan 2018 08:41:49 +0100'
p15
sS'msg_id_mime'
p16
S'<CAF34eQGG9HRB141S8LrxbgkW+_YBkv0AZyVxhorJPP3QTqArDA@mail.gmail.com>'
p17
sS'msg_text'
p18
S'H\xc3\xa4hnchen die andere Post auch schon da ???? Der MBA Test?\n\xf0\x9f\x98\x8e\xf0\x9f\x98\x8e\nAm 25.01.2018 08:28 schrieb "Clara Marquardt" <marquardt.clara@gmail.com>:\n'
p19
sS'msg_reply_to_id_mime'
p20
S'<CAC77MjJxpGWpHLJBhASvR2q4zcJttGJ=RUtwMWzN_m5C2FYuHg@mail.gmail.com>'
p21
sS'msg_label'
p22
(lp23
VIMPORTANT
p24
aVCATEGORY_PERSONAL
p25
aVINBOX
p26
asS'msg_cc'
p27
NsS'msg_bcc'
p28
Ns.