(dp1
S'msg_subject'
p2
S'Re: Quick multiple outcome related question'
p3
sS'msg_from'
p4
S'Jann Spiess <jann.spiess@gmail.com>'
p5
sS'msg_to'
p6
S'Clara Marquardt <marquardt.clara@gmail.com>'
p7
sS'msg_inbox_outbox'
p8
S'inbox'
p9
sS'msg_id'
p10
V160dd7cd2736f80b
p11
sS'msg_threadid'
p12
V160dd78d87344182
p13
sS'msg_date'
p14
S'Wed, 10 Jan 2018 00:33:41 +0000'
p15
sS'msg_id_mime'
p16
S'<CANGm9-DKrEo1m=3P=NZGWYW31S819rCGQ9NuH-Y6zx2TWWd9UA@mail.gmail.com>'
p17
sS'msg_text'
p18
S'Clara, Happy New Year, and thanks for your wishes \xe2\x80\x93 all going well so far,\nfirst flyout tomorrow.\nYes, that looks reasonable to me. Of course the null hypothesis is now that\nnothing makes a difference. It would be interesting how the performance\ncompare to a bundling of all the treatment groups into a single group\n(which I assume is what we have done so far?).\n'
p19
sS'msg_reply_to_id_mime'
p20
S'<D665A2ED-40B4-4EAB-9B08-3E908EBB6EE3@gmail.com>'
p21
sS'msg_label'
p22
(lp23
VIMPORTANT
p24
aVCATEGORY_PERSONAL
p25
aVINBOX
p26
asS'msg_cc'
p27
S'"Ludwig, Jens O" <jludwig@uchicago.edu>'
p28
sS'msg_bcc'
p29
Ns.