(dp1
S'msg_subject'
p2
S'Re:'
p3
sS'msg_from'
p4
S'alf zips <alfzips@gmail.com>'
p5
sS'msg_to'
p6
S'Clara Marquardt <marquardt.clara@gmail.com>'
p7
sS'msg_inbox_outbox'
p8
S'inbox'
p9
sS'msg_id'
p10
V160a46a14b26737b
p11
sS'msg_threadid'
p12
V160a1bf084be7f82
p13
sS'msg_date'
p14
S'Fri, 29 Dec 2017 23:35:01 +0100'
p15
sS'msg_id_mime'
p16
S'<CAF34eQGLE0ERYnma39q6vcsYnPMsM6sUzQQxrxiKXWp-DOBF4w@mail.gmail.com>'
p17
sS'msg_text'
p18
S'Liebes H\xc3\xbchnchen,\nhab noch mal an deinem Booth assay nun als Power point gesssen.\n1. also da es 5 seiten sind, sollten auch auf jeder Seite anteilig gleich\nviel Worte stehen. Insofern ist k\xc3\xbcrzen nur sehr moderat anzuraten, da sonst\ndas gebilde nicht mehr steht.\n2. ich habe ein paar S\xc3\xa4tze auf seite 5 vereinfacht.\n3. auf seite 2 ein paar worte rot markiert, da hier die rechtschreibung\nvielleciht fehlerhaft ist\n4. alle Firmennamen w\xc3\xbcrde ich kursiv schreiben, damit es leichtere zu\nverstehen ist\n5. auf Seite 2 fand ich die fr\xc3\xbchere Formulierung einleuchtender und besser\nund habe sie reinkopiert.\n6. mit dem k\xc3\xbcrzen auf seite 2 m\xc3\xbcsste der gleiche Font wie auf allen anderen\nm\xc3\xb6glich sein.\ndu bist toll... schick mir was du willst ich geb meine bestes dir zu helfen\n:)\n'
p19
sS'msg_reply_to_id_mime'
p20
S'<5311ABD5-AB79-4728-A158-FE15FF4D5BC7@gmail.com>'
p21
sS'msg_label'
p22
(lp23
VIMPORTANT
p24
aVCATEGORY_PERSONAL
p25
aVINBOX
p26
asS'msg_cc'
p27
NsS'msg_bcc'
p28
Ns.