(dp1
S'msg_subject'
p2
S'Re: Chatting about Sloan'
p3
sS'msg_from'
p4
S'Lara Ortiz-Luis <lyortizluis@gmail.com>'
p5
sS'msg_to'
p6
S'Clara Marquardt <marquardt.clara@gmail.com>'
p7
sS'msg_inbox_outbox'
p8
S'inbox'
p9
sS'msg_id'
p10
V1611b67f8f52903b
p11
sS'msg_threadid'
p12
V160de66ec293d480
p13
sS'msg_date'
p14
S'Mon, 22 Jan 2018 12:07:12 +1100'
p15
sS'msg_id_mime'
p16
S'<CAPTB0rw2kz7YnTe39AkOT=wmJQuuQX9LH1L965Xg_UvhKD=DKA@mail.gmail.com>'
p17
sS'msg_text'
p18
S'No problem! Let me know if you have any other questions and good luck!\n'
p19
sS'msg_reply_to_id_mime'
p20
S'<29F1A713-7019-41BD-A324-AB1B019E44F3@gmail.com>'
p21
sS'msg_label'
p22
(lp23
VIMPORTANT
p24
aVCATEGORY_PERSONAL
p25
aVINBOX
p26
asS'msg_cc'
p27
NsS'msg_bcc'
p28
Ns.