(dp1
S'msg_subject'
p2
S'Automatic reply: Meeting today'
p3
sS'msg_from'
p4
S'Catherine Schwarz <cschwarz@uchicago.edu>'
p5
sS'msg_to'
p6
S'Clara Marquardt <marquardt.clara@gmail.com>'
p7
sS'msg_inbox_outbox'
p8
S'inbox'
p9
sS'msg_id'
p10
V15fa9e0c63a9d2d2
p11
sS'msg_threadid'
p12
V15fa9e0c63a9d2d2
p13
sS'msg_date'
p14
S'Sat, 11 Nov 2017 06:59:59 +0000'
p15
sS'msg_id_mime'
p16
S'<0bcdded9dcb745dbbb97c993c74d4555@BN3PR1101MB1185.namprd11.prod.outlook.com>'
p17
sS'msg_text'
p18
S'Hello,\nThank you for your email. I am currently out of the office and have limited access to my email. I will return from vacation on Tuesday, November 14, and respond to your message then.\nBest,\nCatherine\n'
p19
sS'msg_reply_to_id_mime'
p20
S'<4BE7BAB2-AADB-427B-93D0-AFAC3D446D96@gmail.com>'
p21
sS'msg_label'
p22
(lp23
VIMPORTANT
p24
aVCATEGORY_PERSONAL
p25
aVINBOX
p26
asS'msg_cc'
p27
NsS'msg_bcc'
p28
Ns.