(dp1
S'msg_subject'
p2
S'Re: Two quick questions (not sure if you check Slack). Thank you!'
p3
sS'msg_from'
p4
S'Sendhil Mullainathan <sendhil.mullainathan@gmail.com>'
p5
sS'msg_to'
p6
S'Clara Marquardt <marquardt.clara@gmail.com>'
p7
sS'msg_inbox_outbox'
p8
S'inbox'
p9
sS'msg_id'
p10
V1612ed02b03d088b
p11
sS'msg_threadid'
p12
V1612ec732b08342f
p13
sS'msg_date'
p14
S'Thu, 25 Jan 2018 19:33:58 +0000'
p15
sS'msg_id_mime'
p16
S'<CAPUhpVPYpc1y+ybEq9Xw=q9XN26_N-1ccLGohLbLzniNPWpj-w@mail.gmail.com>'
p17
sS'msg_text'
p18
S'Absolutely yes on both\nMore soon - would be good to talk to get caugth up\n'
p19
sS'msg_reply_to_id_mime'
p20
S'<5a6a2ee5.02616b0a.824d4.c979@mx.google.com>'
p21
sS'msg_label'
p22
(lp23
VIMPORTANT
p24
aVCATEGORY_PERSONAL
p25
aVINBOX
p26
asS'msg_cc'
p27
NsS'msg_bcc'
p28
Ns.