(dp1
S'msg_subject'
p2
S'Re: Re:'
p3
sS'msg_from'
p4
S'alf zips <alfzips@gmail.com>'
p5
sS'msg_to'
p6
S'Clara Marquardt <marquardt.clara@gmail.com>'
p7
sS'msg_inbox_outbox'
p8
S'inbox'
p9
sS'msg_id'
p10
V160ebfbef6f136fd
p11
sS'msg_threadid'
p12
V160e3c7330af3073
p13
sS'msg_date'
p14
S'Fri, 12 Jan 2018 21:07:22 +0100'
p15
sS'msg_id_mime'
p16
S'<CAF34eQE+rpB2yAt+XJf8Ueq0+oinuusTpoRZWMeXV4Qo51Hzfg@mail.gmail.com>'
p17
sS'msg_text'
p18
S'super H\xc3\xbchnchen hast ja von WINDOWS geschickt :))\nanbei den text mit zwei Anmerkungen "high-stack decision" den Begriff kenn\nich nicht aber das muss nichts heissen .\nund dann habe ich das Format etwas ge\xc3\xa4ndert da jetzt ja genug Platz auf der\nseite ist.\nIch finde den text spanned und ansprechend sodas er neugierig macht, also\nnichts mehr \xc3\xa4ndern...\n'
p19
sS'msg_reply_to_id_mime'
p20
S'<5a58fa14.cf836b0a.81dec.21a4@mx.google.com>'
p21
sS'msg_label'
p22
(lp23
VIMPORTANT
p24
aVCATEGORY_PERSONAL
p25
aVINBOX
p26
asS'msg_cc'
p27
NsS'msg_bcc'
p28
Ns.