(dp1
S'msg_subject'
p2
S'Re:'
p3
sS'msg_from'
p4
S'alf zips <alfzips@gmail.com>'
p5
sS'msg_to'
p6
S'Clara Marquardt <marquardt.clara@gmail.com>'
p7
sS'msg_inbox_outbox'
p8
S'inbox'
p9
sS'msg_id'
p10
V1613e50f3853b067
p11
sS'msg_threadid'
p12
V1613b5cfddc33832
p13
sS'msg_date'
p14
S'Sun, 28 Jan 2018 20:49:06 +0100'
p15
sS'msg_id_mime'
p16
S'<CAF34eQF5Q5wPkx-2fdP3rOM60DBjBmVuQjSgpTG=jSt3eEnH2g@mail.gmail.com>'
p17
sS'msg_text'
p18
S'Danke h\xc3\xbchnchen, ein paar ideen:\n- 1. die Einleitung direct warum hast du das gegoogelt: du woltest Alumni\ntreffen und hast deswegen ihr Profil angeschaut\n- 2. bei Menge fands du interessant dinge welche ??? was hast du angeschaut\nlinkin ?\n- 3. Dann das Telefon, da du Sie interssant fandest\n - 4 schluss mit Zitat von Meng was und was dich an der Frau fasziniert hat.\nich w\xc3\xbcrde nicht darasu wieder ein Motivationsschreiben machen...\nviel gl\xc3\xbcck :) gruss aus Indien\n'
p19
sS'msg_reply_to_id_mime'
p20
S'<1162557A-5DD3-4DD5-AA3B-22007F217D4F@gmail.com>'
p21
sS'msg_label'
p22
(lp23
VIMPORTANT
p24
aVCATEGORY_PERSONAL
p25
aVINBOX
p26
asS'msg_cc'
p27
NsS'msg_bcc'
p28
Ns.