(dp1
S'msg_subject'
p2
S'Re:'
p3
sS'msg_from'
p4
S'alf zips <alfzips@gmail.com>'
p5
sS'msg_to'
p6
S'Clara Marquardt <marquardt.clara@gmail.com>'
p7
sS'msg_inbox_outbox'
p8
S'inbox'
p9
sS'msg_id'
p10
V16115a504c078c80
p11
sS'msg_threadid'
p12
V160fe08b93de5149
p13
sS'msg_date'
p14
S'Sat, 20 Jan 2018 23:16:29 +0100'
p15
sS'msg_id_mime'
p16
S'<CAF34eQGJksOgKjXNZgAP60s5x_vV-_TLS1JKu99pn-p7y2VmLQ@mail.gmail.com>'
p17
sS'msg_text'
p18
S'Liebes H\xc3\xa4hnchen hab eine sch\xc3\xb6nes Wochenende in NY\xf0\x9f\x98\x97\nAm 19.01.2018 23:21 schrieb "Clara Marquardt" <marquardt.clara@gmail.com>:\n'
p19
sS'msg_reply_to_id_mime'
p20
S'<CAC77MjJQ+BE9pehMBPPPvKfAgdjc3SZ3N7sK2bMzXgm6TK8SyA@mail.gmail.com>'
p21
sS'msg_label'
p22
(lp23
VIMPORTANT
p24
aVCATEGORY_PERSONAL
p25
aVINBOX
p26
asS'msg_cc'
p27
NsS'msg_bcc'
p28
Ns.