(dp1
S'msg_subject'
p2
S'Re:'
p3
sS'msg_from'
p4
S'alf zips <alfzips@gmail.com>'
p5
sS'msg_to'
p6
S'Clara Marquardt <marquardt.clara@gmail.com>'
p7
sS'msg_inbox_outbox'
p8
S'inbox'
p9
sS'msg_id'
p10
V15fef7dc2db4e610
p11
sS'msg_threadid'
p12
V15fee6f110b078d9
p13
sS'msg_date'
p14
S'Fri, 24 Nov 2017 20:25:15 +0100'
p15
sS'msg_id_mime'
p16
S'<CAF34eQE-+LypUeWXi7mkv+e_LgA-Zh1PURskNAszQVu+TXU69A@mail.gmail.com>'
p17
sS'msg_text'
p18
S'du HUHN :)\n'
p19
sS'msg_reply_to_id_mime'
p20
S'<C889DC35-8D20-45BC-8D78-C37C2D70F92A@gmail.com>'
p21
sS'msg_label'
p22
(lp23
VIMPORTANT
p24
aVCATEGORY_PERSONAL
p25
aVINBOX
p26
asS'msg_cc'
p27
NsS'msg_bcc'
p28
Ns.