(dp1
S'msg_subject'
p2
S'Re:'
p3
sS'msg_from'
p4
S'alf zips <alfzips@gmail.com>'
p5
sS'msg_to'
p6
S'Clara Marquardt <marquardt.clara@gmail.com>'
p7
sS'msg_inbox_outbox'
p8
S'inbox'
p9
sS'msg_id'
p10
V160d1dde68c1687a
p11
sS'msg_threadid'
p12
V160cae524f17eafa
p13
sS'msg_date'
p14
S'Sun, 7 Jan 2018 19:24:27 +0100'
p15
sS'msg_id_mime'
p16
S'<CAF34eQEdshQdsOQ4zqUv08Lt+Bd8_a_vzW3Rbtxagjr+Y6+ACw@mail.gmail.com>'
p17
sS'msg_text'
p18
S'H\xc3\xbchnchen\nhier meine Version... \xc3\xa4hnlich. dann kannst du w\xc3\xa4hlen :)\n'
p19
sS'msg_reply_to_id_mime'
p20
S'<12359281-25A4-4DD4-8DF6-AFAD3028E4E0@gmail.com>'
p21
sS'msg_label'
p22
(lp23
VIMPORTANT
p24
aVCATEGORY_PERSONAL
p25
aVINBOX
p26
asS'msg_cc'
p27
S'Ulla Marquardt <ulla.marquardt@yahoo.de>'
p28
sS'msg_bcc'
p29
Ns.