(dp1
S'msg_subject'
p2
S'Re:'
p3
sS'msg_from'
p4
S'alf zips <alfzips@gmail.com>'
p5
sS'msg_to'
p6
S'Clara Marquardt <marquardt.clara@gmail.com>'
p7
sS'msg_inbox_outbox'
p8
S'inbox'
p9
sS'msg_id'
p10
V15fe5116a5c10f19
p11
sS'msg_threadid'
p12
V15fdc103786f1f80
p13
sS'msg_date'
p14
S'Wed, 22 Nov 2017 19:50:43 +0100'
p15
sS'msg_id_mime'
p16
S'<CAF34eQH2OQvuZjO8DJrE6Sgu8LS_7jjNyQaxq+HEhhwfXiYRXA@mail.gmail.com>'
p17
sS'msg_text'
p18
S'H\xc3\xbchnchen mit der rollenverteilung auf dem boot bin ich einverstanden.....\nLink hab ich schon gesehen und studiere heute \xf0\x9f\x98\x97\n'
p19
sS'msg_reply_to_id_mime'
p20
S'<BE713991-BFC8-4AFB-ACD1-E25C1B21F84D@gmail.com>'
p21
sS'msg_label'
p22
(lp23
VIMPORTANT
p24
aVCATEGORY_PERSONAL
p25
aVINBOX
p26
asS'msg_cc'
p27
NsS'msg_bcc'
p28
Ns.