(dp1
S'msg_subject'
p2
S'Re:'
p3
sS'msg_from'
p4
S'alf zips <alfzips@gmail.com>'
p5
sS'msg_to'
p6
S'Clara Marquardt <marquardt.clara@gmail.com>'
p7
sS'msg_inbox_outbox'
p8
S'inbox'
p9
sS'msg_id'
p10
V15fe4d66107bed7f
p11
sS'msg_threadid'
p12
V15fdc103786f1f80
p13
sS'msg_date'
p14
S'Wed, 22 Nov 2017 18:46:12 +0100'
p15
sS'msg_id_mime'
p16
S'<CAF34eQErxWBPRzsRBwxDWFEzGiXDVP2uYb7GWs0iuvauxoLpQA@mail.gmail.com>'
p17
sS'msg_text'
p18
S'Super war heut schon am see \xf0\x9f\x98\x8e\nHallo H\xc3\xbchnchen...\ndein Renter hat NICHTS ZU TUN... du must ihn besch\xc3\xa4ftigen sonst machen die\nnur Bl\xc3\xb6dsinn... HBO und so :)\n'
p19
sS'msg_reply_to_id_mime'
p20
S'<CAF34eQGeFFT-D=dR5hc-4+WNHUnr87u3wMrR045PohnV2Qyoeg@mail.gmail.com>'
p21
sS'msg_label'
p22
(lp23
VIMPORTANT
p24
aVCATEGORY_PERSONAL
p25
aVINBOX
p26
asS'msg_cc'
p27
NsS'msg_bcc'
p28
Ns.