(dp1
S'msg_subject'
p2
S"Re: You've been invited to an interview for MBA2020 - Round 2"
p3
sS'msg_from'
p4
S'alf zips <alfzips@gmail.com>'
p5
sS'msg_to'
p6
S'Clara Marquardt <marquardt.clara@gmail.com>'
p7
sS'msg_inbox_outbox'
p8
S'inbox'
p9
sS'msg_id'
p10
V1616ab8bcba5a00b
p11
sS'msg_threadid'
p12
V161666eb6d60a3b4
p13
sS'msg_date'
p14
S'Tue, 6 Feb 2018 11:45:45 +0100'
p15
sS'msg_id_mime'
p16
S'<CAF34eQHt4mouMA0pgFnhawQxE1rTJ_MX8tYnB_igo_N9t8nnYA@mail.gmail.com>'
p17
sS'msg_text'
p18
S'H\xc3\xa4hnchen heute abend schnattern.... schick dir nachher noch was \xf0\x9f\x98\x97\n'
p19
sS'msg_reply_to_id_mime'
p20
S'<83F77583-E5CD-441E-9F92-C5A997A3989D@gmail.com>'
p21
sS'msg_label'
p22
(lp23
VIMPORTANT
p24
aVCATEGORY_PERSONAL
p25
aVINBOX
p26
asS'msg_cc'
p27
NsS'msg_bcc'
p28
Ns.