(dp1
S'msg_subject'
p2
S'RE: Important Registration Information'
p3
sS'msg_from'
p4
S'"Epps, Kimberly" <Kimberly.Epps@chicagobooth.edu>'
p5
sS'msg_to'
p6
S'Clara Marquardt <marquardt.clara@gmail.com>'
p7
sS'msg_inbox_outbox'
p8
S'inbox'
p9
sS'msg_id'
p10
V1612e876a793f905
p11
sS'msg_threadid'
p12
V16129f021a75993d
p13
sS'msg_date'
p14
S'Thu, 25 Jan 2018 18:14:38 +0000'
p15
sS'msg_id_mime'
p16
S'<86093552EFF3D34A82FBEF68B2FE5A2B4C505AC5@bushexmb01.gsb.uchicago.edu>'
p17
sS'msg_text'
p18
S'Hi!\nYour class selection has been received.\nKimberly T. Epps\nAssistant Director, Admissions\nThe University of Chicago\nBooth School of Business\n5807 South Woodlawn Avenue\nChicago, Illinois 60637\nPhone: 773.834.2596\n[cid:image001.jpg@01D2A705.5A419C10]<http://www.facebook.com/consideringbooth>[cid:image002.jpg@01D2A705.5A419C10]<https://twitter.com/BoothFullTime> [cid:image003.jpg@01D2A705.5A419C10] <https://www.linkedin.com/company/chicago-booth-full-time-program>  [cid:image004.jpg@01D2A705.5A419C10] <https://www.instagram.com/chicagobooth/>  [cid:image005.jpg@01D2A705.5A419C10] <https://www.youtube.com/ChicagoBooth>\n[cid:image001.jpg@01CE3C38.F48253A0]\n-------------------------------\nStay in touch with the Full-Time MBA Program\n'
p19
sS'msg_reply_to_id_mime'
p20
S'<19352858-7558-4FC4-850A-BB721DE65D5A@gmail.com>'
p21
sS'msg_label'
p22
(lp23
VIMPORTANT
p24
aVCATEGORY_PERSONAL
p25
aVINBOX
p26
asS'msg_cc'
p27
NsS'msg_bcc'
p28
Ns.