(dp1
S'msg_subject'
p2
S'Schon wieder reicher...'
p3
sS'msg_from'
p4
S'Ulla Marquardt <ulla.marquardt@yahoo.de>'
p5
sS'msg_to'
p6
S'Clara Marquardt <marquardt.clara@gmail.com>'
p7
sS'msg_inbox_outbox'
p8
S'inbox'
p9
sS'msg_id'
p10
V16136ae09b942215
p11
sS'msg_threadid'
p12
V16136ae09b942215
p13
sS'msg_date'
p14
S'Sat, 27 Jan 2018 08:13:42 +0000 (UTC)'
p15
sS'msg_id_mime'
p16
S'<680116792.1490664.1517040824398@mail.yahoo.com>'
p17
sS'msg_text'
p18
S'Gut gemacht!\nGesendet von Yahoo Mail auf Android'
p19
sS'msg_reply_to_id_mime'
p20
Fnan
sS'msg_label'
p21
(lp22
VIMPORTANT
p23
aVCATEGORY_PERSONAL
p24
aVINBOX
p25
asS'msg_cc'
p26
S'Alf Zips <alfzips@gmail.com>'
p27
sS'msg_bcc'
p28
Ns.