(dp1
S'msg_subject'
p2
S'Re:'
p3
sS'msg_from'
p4
S'alf zips <alfzips@gmail.com>'
p5
sS'msg_to'
p6
S'Clara Marquardt <marquardt.clara@gmail.com>'
p7
sS'msg_inbox_outbox'
p8
S'inbox'
p9
sS'msg_id'
p10
V160fb5ab02b5fe35
p11
sS'msg_threadid'
p12
V160f92d8f0fe22c3
p13
sS'msg_date'
p14
S'Mon, 15 Jan 2018 20:45:10 +0100'
p15
sS'msg_id_mime'
p16
S'<CAF34eQGsM1QbA2K+7LVoewErWkXWGqxsbPFwjcTZNLixksq7nA@mail.gmail.com>'
p17
sS'msg_text'
p18
S'hallo h\xc3\xbchnchen habe ich gelesen udn finde es sehr gut, habe eineb satz\netwas ver\xc3\xa4ndert vielleicht gef\xc3\xa4llt es dir auch dass es k\xc3\xbcrzer ist.ich bin\nzu hause :)\n'
p19
sS'msg_reply_to_id_mime'
p20
S'<17809447-1022-4CF4-8508-0F766D0111B6@gmail.com>'
p21
sS'msg_label'
p22
(lp23
VIMPORTANT
p24
aVCATEGORY_PERSONAL
p25
aVINBOX
p26
asS'msg_cc'
p27
NsS'msg_bcc'
p28
Ns.