(dp1
S'msg_subject'
p2
S"Re: Fwd: You've been invited to an interview for MBA2020 - Round 2"
p3
sS'msg_from'
p4
S'Ulla Marquardt <ulla.marquardt@yahoo.de>'
p5
sS'msg_to'
p6
S'Clara Marquardt <marquardt.clara@gmail.com>, \r\n\talf zips <alfzips@gmail.com>'
p7
sS'msg_inbox_outbox'
p8
S'inbox'
p9
sS'msg_id'
p10
V1616cbeac8b3986e
p11
sS'msg_threadid'
p12
V161666eb6d60a3b4
p13
sS'msg_date'
p14
S'Tue, 6 Feb 2018 20:11:26 +0000 (UTC)'
p15
sS'msg_id_mime'
p16
S'<404068827.6989145.1517947886937@mail.yahoo.com>'
p17
sS'msg_text'
p18
S"hier mein erster versuch fuer die LBS videofrage teil 1:\numarme euch beide\n      Von: Clara Marquardt <marquardt.clara@gmail.com>\n An: Ulla Marquardt <ulla.marquardt@yahoo.de>; alf zips <alfzips@gmail.com> \n Gesendet: 18:43 Montag, 5.Februar 2018\n Betreff: Fwd: You've been invited to an interview for MBA2020 - Round 2\n   \nHier die details der video Sache da ihr gefragt hattet. Es sind 1.30 Minuten pro frage, die erste frage ist wie schon gesagt:\xc2\xa0\nWhat will you gain from the London Business School MBA Programme\xc2\xa0that you won\xe2\x80\x99t gain from another MBA programme? Start preparing your\xc2\xa0answer now!\nMan hat 45\xc2\xa0Sekunden\xc2\xa0Vorbereitung fuer die 2te frage die random ist.\xc2\xa0Der ganze spass ist am 26ten due (ich nehme an\xc2\xa0Mitternacht London zeit).\xc2\xa0Zur\xc2\xa0Sicherheit und da London zeit sollte ich es bei mir am\xc2\xa0Sonntag den 25ten abends abgeben - also have ich 19ten (Montag) - 25ten\xc2\xa0Sonntag.\nHuhn findet das alles sehr\xc2\xa0unlustig\xe2\x80\xa6\xe2\x80\xa6.\n"
p19
sS'msg_reply_to_id_mime'
p20
S'<9419E1AD-0697-42C7-89B9-D6FDDC5F740C@gmail.com>'
p21
sS'msg_label'
p22
(lp23
VIMPORTANT
p24
aVCATEGORY_PERSONAL
p25
aVINBOX
p26
asS'msg_cc'
p27
NsS'msg_bcc'
p28
Ns.