(dp1
S'msg_subject'
p2
S'Vom Snipping Tool gesendet'
p3
sS'msg_from'
p4
S'Zips Alf <AZips@baumer.com>'
p5
sS'msg_to'
p6
S'"marquardt.clara@gmail.com" <marquardt.clara@gmail.com>'
p7
sS'msg_inbox_outbox'
p8
S'inbox'
p9
sS'msg_id'
p10
V16001af8ecfd56f3
p11
sS'msg_threadid'
p12
V16001af8ecfd56f3
p13
sS'msg_date'
p14
S'Tue, 28 Nov 2017 08:12:32 +0000'
p15
sS'msg_id_mime'
p16
S'<4F18C3B8473AA64F8830C8E125EBCD8801792A9AEB@srvchfra018.baumernet.org>'
p17
sS'msg_text'
p18
S'\n'
sS'msg_reply_to_id_mime'
p19
Fnan
sS'msg_label'
p20
(lp21
VCATEGORY_PERSONAL
p22
aVINBOX
p23
asS'msg_cc'
p24
NsS'msg_bcc'
p25
Ns.