(dp1
S'msg_subject'
p2
S'Re:'
p3
sS'msg_from'
p4
S'alf zips <alfzips@gmail.com>'
p5
sS'msg_to'
p6
S'Clara Marquardt <marquardt.clara@gmail.com>'
p7
sS'msg_inbox_outbox'
p8
S'inbox'
p9
sS'msg_id'
p10
V1612c4c009e90a58
p11
sS'msg_threadid'
p12
V1612c3325a3600c3
p13
sS'msg_date'
p14
S'Thu, 25 Jan 2018 08:50:32 +0100'
p15
sS'msg_id_mime'
p16
S'<CAF34eQGtJDSd5_ZemgP9WTWYZay=DTGddOaSx1EY2L_iVMW2Xg@mail.gmail.com>'
p17
sS'msg_text'
p18
S'Sehr ich auch so....allerings besser es auch als Test zu best\xc3\xa4tigen \xf0\x9f\x98\x8e\xf0\x9f\x98\x8e\nAm 25.01.2018 08:43 schrieb "Clara Marquardt" <marquardt.clara@gmail.com>:\n'
p19
sS'msg_reply_to_id_mime'
p20
S'<CC5FB589-1726-401F-BAD2-20EA093DE06F@gmail.com>'
p21
sS'msg_label'
p22
(lp23
VIMPORTANT
p24
aVCATEGORY_PERSONAL
p25
aVINBOX
p26
asS'msg_cc'
p27
NsS'msg_bcc'
p28
Ns.