(dp1
S'msg_subject'
p2
S'Re:'
p3
sS'msg_from'
p4
S'alf zips <alfzips@gmail.com>'
p5
sS'msg_to'
p6
S'Clara Marquardt <marquardt.clara@gmail.com>'
p7
sS'msg_inbox_outbox'
p8
S'inbox'
p9
sS'msg_id'
p10
V15fd9f7e15ddef7e
p11
sS'msg_threadid'
p12
V15fd9ac9e3d82c23
p13
sS'msg_date'
p14
S'Mon, 20 Nov 2017 16:07:00 +0100'
p15
sS'msg_id_mime'
p16
S'<CAF34eQF1wc69fROridFVC-hAM04digWfUUCDsKxveja-EaU01w@mail.gmail.com>'
p17
sS'msg_text'
p18
S'\n'
sS'msg_reply_to_id_mime'
p19
S'<CDEEFA2B-339A-43B6-AD9F-AB33F0512325@gmail.com>'
p20
sS'msg_label'
p21
(lp22
VIMPORTANT
p23
aVCATEGORY_PERSONAL
p24
aVINBOX
p25
asS'msg_cc'
p26
NsS'msg_bcc'
p27
Ns.