(dp1
S'msg_subject'
p2
S'Re: Chatting about Sloan'
p3
sS'msg_from'
p4
S'Lara Ortiz-Luis <lyortizluis@gmail.com>'
p5
sS'msg_to'
p6
S'Clara Marquardt <marquardt.clara@gmail.com>'
p7
sS'msg_inbox_outbox'
p8
S'inbox'
p9
sS'msg_id'
p10
V160e2c97871dbc1d
p11
sS'msg_threadid'
p12
V160de66ec293d480
p13
sS'msg_date'
p14
S'Thu, 11 Jan 2018 01:15:31 +0000'
p15
sS'msg_id_mime'
p16
S'<CAPTB0rzwrYNH3OT3eStDXmk6aTAMBzeT7uM+5E6UWphhhbJ7yQ@mail.gmail.com>'
p17
sS'msg_text'
p18
S"Would the 18th in the evening work for you? I am still going to be in\nSydney so that's my morning of the 19th.\n"
p19
sS'msg_reply_to_id_mime'
p20
S'<D7A85580-9397-42C6-88F1-F97D9BF606D0@gmail.com>'
p21
sS'msg_label'
p22
(lp23
VIMPORTANT
p24
aVCATEGORY_PERSONAL
p25
aVINBOX
p26
asS'msg_cc'
p27
NsS'msg_bcc'
p28
Ns.