(dp1
S'msg_subject'
p2
S'Re:'
p3
sS'msg_from'
p4
S'alf zips <alfzips@gmail.com>'
p5
sS'msg_to'
p6
S'Clara Marquardt <marquardt.clara@gmail.com>'
p7
sS'msg_inbox_outbox'
p8
S'inbox'
p9
sS'msg_id'
p10
V16110822cd305918
p11
sS'msg_threadid'
p12
V160fe08b93de5149
p13
sS'msg_date'
p14
S'Fri, 19 Jan 2018 23:20:20 +0100'
p15
sS'msg_id_mime'
p16
S'<CAF34eQFO67wcPPK35XLivEpLn5uMxR6W_ogfw-K3QdXt4ptkqw@mail.gmail.com>'
p17
sS'msg_text'
p18
S'Der MBA chickentest ist unterwegs... steht so auch auf der\nzollerkl\xc3\xa4rung.... mal seh\'n was da passiert \xf0\x9f\x98\x8e\nAm 19.01.2018 23:14 schrieb "alf zips" <alfzips@gmail.com>:\n'
p19
sS'msg_reply_to_id_mime'
p20
S'<CAF34eQGv_9vKoeqBTCBSNgQ5+cx+JYm6i1CMKgdVF1TtZUUT0Q@mail.gmail.com>'
p21
sS'msg_label'
p22
(lp23
VIMPORTANT
p24
aVCATEGORY_PERSONAL
p25
aVINBOX
p26
asS'msg_cc'
p27
NsS'msg_bcc'
p28
Ns.