(dp1
S'msg_subject'
p2
S'Re: Clara Marquardt paid you $37.00 on Venmo'
p3
sS'msg_from'
p4
S'Shreyas Lakhtakia <shreyaslakhtakia@gmail.com>'
p5
sS'msg_to'
p6
S'Clara Marquardt <marquardt.clara@gmail.com>'
p7
sS'msg_inbox_outbox'
p8
S'inbox'
p9
sS'msg_id'
p10
V1615c6134b208809
p11
sS'msg_threadid'
p12
V160c43f6689f6e52
p13
sS'msg_date'
p14
S'Sat, 03 Feb 2018 15:55:19 +0000'
p15
sS'msg_id_mime'
p16
S'<CALEjPT_upNd9sbb3LRLD-8xGXqgjmDZ95BfhfFDS5DDThcLyrg@mail.gmail.com>'
p17
sS'msg_text'
p18
S'Did you get this back? :)\nAlso -- what do I still owe you from that weekend?\n'
p19
sS'msg_reply_to_id_mime'
p20
S'<62B3BA67-F11D-4452-90DE-A0E45B8D06A7@gmail.com>'
p21
sS'msg_label'
p22
(lp23
VIMPORTANT
p24
aVCATEGORY_PERSONAL
p25
aVINBOX
p26
asS'msg_cc'
p27
NsS'msg_bcc'
p28
Ns.