(dp1
S'msg_subject'
p2
S'Re: [sysmedlab/ehR] group_race() bug (#1)'
p3
sS'msg_from'
p4
S'"Lakhtakia, Shreyas" <slakhtakia@bwh.harvard.edu>'
p5
sS'msg_to'
p6
S'Clara Marquardt <marquardt.clara@gmail.com>'
p7
sS'msg_inbox_outbox'
p8
S'inbox'
p9
sS'msg_id'
p10
V160bc332a70ced7f
p11
sS'msg_threadid'
p12
V160b8ae9e97cf49d
p13
sS'msg_date'
p14
S'Wed, 3 Jan 2018 13:25:54 +0000'
p15
sS'msg_id_mime'
p16
S'<BN6PR04MB1155A6AECD86AC707208AF55821E0@BN6PR04MB1155.namprd04.prod.outlook.com>'
p17
sS'msg_text'
p18
S'Just making a note to someone who will inherit this codebase ;)\n'
p19
sS'msg_reply_to_id_mime'
p20
S'<1D9CDEEB-87A5-48BD-AEAE-D5065145407A@gmail.com>'
p21
sS'msg_label'
p22
(lp23
VIMPORTANT
p24
aVCATEGORY_PERSONAL
p25
aVINBOX
p26
asS'msg_cc'
p27
NsS'msg_bcc'
p28
Ns.