(dp1
S'msg_subject'
p2
S'Re: Troubleshooting for KnowingMe'
p3
sS'msg_from'
p4
S'Alex Blau <ablau@ideas42.org>'
p5
sS'msg_to'
p6
S'Clara Marquardt <marquardt.clara@gmail.com>'
p7
sS'msg_inbox_outbox'
p8
S'inbox'
p9
sS'msg_id'
p10
V16176c1e18fa5f1c
p11
sS'msg_threadid'
p12
V161722c462552ea5
p13
sS'msg_date'
p14
S'Thu, 08 Feb 2018 18:51:01 +0000'
p15
sS'msg_id_mime'
p16
S'<CAMr8H-k7ZKqHMnX5g3ZWcPkVNaeQd38qqPZQNju656qVR2Cg2g@mail.gmail.com>'
p17
sS'msg_text'
p18
S'Oh cool! Yeah, I\xe2\x80\x99m free tomorrow from 11-12 but I\xe2\x80\x99ll be in Brooklyn, then I\nmight have some afternoon availability after 4 but need to check on one\ncommitment. Let me get back to you. Where are you going to be in NYC?\n'
p19
sS'msg_reply_to_id_mime'
p20
S'<D8D874B6-B62B-4B9A-A3BA-DF6E852E736C@gmail.com>'
p21
sS'msg_label'
p22
(lp23
VIMPORTANT
p24
aVCATEGORY_PERSONAL
p25
aVINBOX
p26
asS'msg_cc'
p27
NsS'msg_bcc'
p28
Ns.