(dp1
S'msg_subject'
p2
S'Re:'
p3
sS'msg_from'
p4
S'alf zips <alfzips@gmail.com>'
p5
sS'msg_to'
p6
S'Clara Marquardt <marquardt.clara@gmail.com>'
p7
sS'msg_inbox_outbox'
p8
S'inbox'
p9
sS'msg_id'
p10
V16186beb70d39580
p11
sS'msg_threadid'
p12
V161863f64ed577d3
p13
sS'msg_date'
p14
S'Sun, 11 Feb 2018 22:21:39 +0100'
p15
sS'msg_id_mime'
p16
S'<CAF34eQFNWJKQ7Hhk8OswVp+9gF7V5R1D3hALT3V_VLeF=XKMXA@mail.gmail.com>'
p17
sS'msg_text'
p18
S'Heute Abend noch schnattern.... Bin noch unterwegs in Schweizer. \xf0\x9f\x98\x97\nAm 11.02.2018 20:02 schrieb "Clara Marquardt" <marquardt.clara@gmail.com>:\n'
p19
sS'msg_reply_to_id_mime'
p20
S'<D720824E-7F2E-45E1-BBD6-2C64C18E6B8D@gmail.com>'
p21
sS'msg_label'
p22
(lp23
VIMPORTANT
p24
aVCATEGORY_PERSONAL
p25
aVINBOX
p26
asS'msg_cc'
p27
NsS'msg_bcc'
p28
Ns.