(dp1
S'msg_subject'
p2
S'Re: Troubleshooting for KnowingMe'
p3
sS'msg_from'
p4
S'Alex Blau <ablau@ideas42.org>'
p5
sS'msg_to'
p6
S'Bec Weeks <weeks.rebecca@gmail.com>'
p7
sS'msg_inbox_outbox'
p8
S'inbox'
p9
sS'msg_id'
p10
V1617231ae19236f3
p11
sS'msg_threadid'
p12
V161722c462552ea5
p13
sS'msg_date'
p14
S'Wed, 07 Feb 2018 21:35:03 +0000'
p15
sS'msg_id_mime'
p16
S'<CAMr8H-nS96PaDsZUXkokJFPDdWC-p-+y_WsMV6iQ90FS+HiG+w@mail.gmail.com>'
p17
sS'msg_text'
p18
S'Thanks Bec! Clara great to get connected! Yes, just let me know when you\nmight have some time to chat this through. Basically, I get to the email\nloading screen and nothing happens. Says it\'s loading but no emails are\nbeing processed.\nI\'ve already gone through the uninstall/reinstall/remove directories/change\ndirectories/clear cache and cookies etc. process and it still isn\'t\nworking. I also keep on landing on some python scripting problem after I\ntry to do the email loading and it fails - the program stops executing:\n/KnowingMe/codebase\nTraceback (most recent call last):\n  File "codebase/KnowingMe.py", line 26, in <module>\n    from __init__ import *\n  File "/KnowingMe/codebase/__init__.py", line 47, in <module>\n    import flask\n  File "/usr/local/lib/python2.7/dist-packages/flask/__init__.py",\nline 17, in <module>\n    from werkzeug.exceptions import abort\n  File "/usr/local/lib/python2.7/dist-packages/werkzeug/__init__.py",\nline 20, in <module>\n    from werkzeug._compat import iteritems\n  File "/usr/local/lib/python2.7/dist-packages/werkzeug/_compat.py",\nline 10, in <module>\n    import builtins\n  File "/usr/local/lib/python2.7/dist-packages/builtins/__init__.py",\nline 8, in <module>\n    from future.builtins import *\n  File "/usr/local/lib/python2.7/dist-packages/future/builtins/__init__.py",\nline 1\nSyntaxError: Non-ASCII character \'\\xef\' in file\n/usr/local/lib/python2.7/dist-packages/future/builtins/__init__.py on\nline 1, but no encoding declared; see\nhttp://python.org/dev/peps/pep-0263/ for details\nLet me know if you have any thoughts!\n'
p19
sS'msg_reply_to_id_mime'
p20
S'<CAPp_zuqBcfTHVwX012Foi5B3ShRp4qHyDq4JMVM2T=6xF+G3_Q@mail.gmail.com>'
p21
sS'msg_label'
p22
(lp23
VIMPORTANT
p24
aVCATEGORY_PERSONAL
p25
aVINBOX
p26
asS'msg_cc'
p27
S'Clara Marquardt <marquardt.clara@gmail.com>'
p28
sS'msg_bcc'
p29
Ns.