(dp1
S'msg_subject'
p2
S'Re:'
p3
sS'msg_from'
p4
S'alf zips <alfzips@gmail.com>'
p5
sS'msg_to'
p6
S'Clara Marquardt <marquardt.clara@gmail.com>'
p7
sS'msg_inbox_outbox'
p8
S'inbox'
p9
sS'msg_id'
p10
V1611006f5c71d6b7
p11
sS'msg_threadid'
p12
V160fe08b93de5149
p13
sS'msg_date'
p14
S'Fri, 19 Jan 2018 21:05:44 +0100'
p15
sS'msg_id_mime'
p16
S'<CAF34eQGtjGt0WkE-sfgG91329OJLhGfi=MwBPEv0Kyys3fLytA@mail.gmail.com>'
p17
sS'msg_text'
p18
S'Hab nachgeschaut... f\xc3\xbcr Tiere heisst die Zahl anders: Herdennummer. Ich\nfrag beim veterin\xc3\xa4ramt nach. \xf0\x9f\x98\x8e\nAm 19.01.2018 19:50 schrieb "Clara Marquardt" <marquardt.clara@gmail.com>:\n'
p19
sS'msg_reply_to_id_mime'
p20
S'<BE55D1CF-DEFB-4655-A767-BB8135E06261@gmail.com>'
p21
sS'msg_label'
p22
(lp23
VIMPORTANT
p24
aVCATEGORY_PERSONAL
p25
aVINBOX
p26
asS'msg_cc'
p27
NsS'msg_bcc'
p28
Ns.