(dp1
S'msg_subject'
p2
S'Updated invitation: Knowing me - Weekly team call @ Thu Jan 11, 2018\n 14:30 - 15:45 (Clara Marquardt)'
p3
sS'msg_from'
p4
S'Bec Weeks <weeks.rebecca@gmail.com>'
p5
sS'msg_to'
p6
S'marquardt.clara@gmail.com, cameron_cohen@college.harvard.edu, \r\n\tjeff morin <morin.jeff@gmail.com>'
p7
sS'msg_inbox_outbox'
p8
S'inbox'
p9
sS'msg_id'
p10
V160e4be62ed17256
p11
sS'msg_threadid'
p12
V160e4be62ed17256
p13
sS'msg_date'
p14
S'Thu, 11 Jan 2018 10:22:49 +0000'
p15
sS'msg_id_mime'
p16
S'<001a1139072ca8ede405627d878f@google.com>'
p17
sS'msg_text'
p18
S"This event has been changed.\nTitle: Knowing me - Weekly team call\nHi guys,\nScheduling a weekly call for us to touch base. I'll move/cancel for the  \nweeks we'll be out on vacation.\nBec Weeks is inviting you to a scheduled Zoom meeting.\nJoin from PC, Mac, Linux, iOS or Android: https://zoom.us/j/489775317\nOr iPhone one-tap :\n     US: +16699006833,,489775317#  or +16468769923,,489775317#\nOr Telephone:\n     Dial(for higher quality, dial a number based on your current location)\xef\xbc\x9a\n         US: +1 669 900 6833  or +1 646 876 9923\n     Meeting ID: 489 775 317\n     International numbers available:  \nhttps://zoom.us/zoomconference?m=6bBdIh8yoqnkh1tAWtTSg9X7P9oPTlfH\nAustralia: +61280152088,,489775317#\nWhen: Thu Jan 11, 2018 14:30 \xe2\x80\x93 15:45 Central Time (changed)\nWhere: https://zoom.us/j/489775317\nCalendar: Clara Marquardt\nWho:\n     * Bec Weeks - organizer\n     * cameron_cohen@college.harvard.edu\n     * jeff morin\n     * Clara Marquardt\nEvent details:  \nhttps://www.google.com/calendar/event?action=VIEW&eid=MDJyMjdpMmVkcWJtYzRlbGxyOXIwMTl0dmlfMjAxODAxMTFUMjAwMDAwWiBtYXJxdWFyZHQuY2xhcmFAbQ&tok=MjMjd2Vla3MucmViZWNjYUBnbWFpbC5jb21mOTU4N2Y0M2U4MjhjMjk1OGEyYzI4NWNmN2U4ODc5NjI4ZWE3Mzc2&ctz=America/Chicago&hl=en\nInvitation from Google Calendar: https://www.google.com/calendar/\nYou are receiving this email at the account marquardt.clara@gmail.com  \nbecause you are subscribed for updated invitations on calendar Clara  \nMarquardt.\nTo stop receiving these emails, please log in to  \nhttps://www.google.com/calendar/ and change your notification settings for  \nthis calendar.\nForwarding this invitation could allow any recipient to modify your RSVP  \nresponse. Learn more at  \nhttps://support.google.com/calendar/answer/37135#forwarding\n"
p19
sS'msg_reply_to_id_mime'
p20
Fnan
sS'msg_label'
p21
(lp22
VCATEGORY_PERSONAL
p23
aVINBOX
p24
asS'msg_cc'
p25
NsS'msg_bcc'
p26
Ns.