(dp1
S'msg_subject'
p2
S'Re: Troubleshooting for KnowingMe'
p3
sS'msg_from'
p4
S'Alex Blau <ablau@ideas42.org>'
p5
sS'msg_to'
p6
S'Clara Marquardt <marquardt.clara@gmail.com>'
p7
sS'msg_inbox_outbox'
p8
S'inbox'
p9
sS'msg_id'
p10
V16175b1bdda0a107
p11
sS'msg_threadid'
p12
V161722c462552ea5
p13
sS'msg_date'
p14
S'Thu, 08 Feb 2018 13:53:46 +0000'
p15
sS'msg_id_mime'
p16
S'<CAMr8H-kYaSSWnaLD-KX5ULgj7z9STCWK=FtiLoTH++cVnessnA@mail.gmail.com>'
p17
sS'msg_text'
p18
S"Hey Clara! No problem! Always happy to help our extended BSci family :)\nI should have some time between 5pm and 6pm EST today (Thursday), which\nwould be 9am-10am Sydney time on Friday (although I don't know where you\nare... so I don't want to presume...\nLet me know if that works for you!....when you wake up?\n"
p19
sS'msg_reply_to_id_mime'
p20
S'<E157D94D-155B-4424-9868-4D2240C66DC8@gmail.com>'
p21
sS'msg_label'
p22
(lp23
VIMPORTANT
p24
aVCATEGORY_PERSONAL
p25
aVINBOX
p26
asS'msg_cc'
p27
S'Bec Weeks <weeks.rebecca@gmail.com>'
p28
sS'msg_bcc'
p29
Ns.