(dp1
S'msg_subject'
p2
S'NYTimes: Know-Nothings for the 21st Century'
p3
sS'msg_from'
p4
S'Ulla Marquardt <ulla.marquardt@yahoo.de>'
p5
sS'msg_to'
p6
S'Clara Marquardt <marquardt.clara@gmail.com>, \r\n\tAlf Zips <alfzips@gmail.com>'
p7
sS'msg_inbox_outbox'
p8
S'inbox'
p9
sS'msg_id'
p10
V1610014d33b9c960
p11
sS'msg_threadid'
p12
V1610014d33b9c960
p13
sS'msg_date'
p14
S'Tue, 16 Jan 2018 17:46:55 +0000 (UTC)'
p15
sS'msg_id_mime'
p16
S'<78260440.7480010.1516124815949@mail.yahoo.com>'
p17
sS'msg_text'
p18
S'Know-Nothings for the 21st Century https://nyti.ms/2FFuG3K\nGesendet von Yahoo Mail auf Android'
p19
sS'msg_reply_to_id_mime'
p20
Fnan
sS'msg_label'
p21
(lp22
VCATEGORY_PERSONAL
p23
aVINBOX
p24
asS'msg_cc'
p25
NsS'msg_bcc'
p26
Ns.