(dp1
S'msg_subject'
p2
S'Re:'
p3
sS'msg_from'
p4
S'alf zips <alfzips@gmail.com>'
p5
sS'msg_to'
p6
S'Clara Marquardt <marquardt.clara@gmail.com>'
p7
sS'msg_inbox_outbox'
p8
S'inbox'
p9
sS'msg_id'
p10
V160f389d75c17db1
p11
sS'msg_threadid'
p12
V160ed7dc05ba4b33
p13
sS'msg_date'
p14
S'Sun, 14 Jan 2018 08:19:43 +0100'
p15
sS'msg_id_mime'
p16
S'<CAF34eQGZ3cVmqnqXhRH=w48NSCG+=Lr-SOFPR4cjKBXu3fubyQ@mail.gmail.com>'
p17
sS'msg_text'
p18
S'Fantastischen....das ein ist gelegt \xf0\x9f\x98\x8e\nAm 14.01.2018 07:31 schrieb "Clara Marquardt" <marquardt.clara@gmail.com>:\n'
p19
sS'msg_reply_to_id_mime'
p20
S'<9AC192DB-20E3-444D-8B33-D299B2E86663@gmail.com>'
p21
sS'msg_label'
p22
(lp23
VIMPORTANT
p24
aVCATEGORY_PERSONAL
p25
aVINBOX
p26
asS'msg_cc'
p27
NsS'msg_bcc'
p28
Ns.