(dp1
S'msg_subject'
p2
S'WG: Message from "PRDESTO002"'
p3
sS'msg_from'
p4
S'Zips Alf <AZips@baumer.com>'
p5
sS'msg_to'
p6
S'Clara Marquardt <marquardt.clara@gmail.com>'
p7
sS'msg_inbox_outbox'
p8
S'inbox'
p9
sS'msg_id'
p10
V160d63e57c852c7c
p11
sS'msg_threadid'
p12
V160d63e57c852c7c
p13
sS'msg_date'
p14
S'Mon, 8 Jan 2018 14:48:15 +0000'
p15
sS'msg_id_mime'
p16
S'<4F18C3B8473AA64F8830C8E125EBCD8801792EF2BA@srvchfra018.baumernet.org>'
p17
sS'msg_text'
p18
S'\nFreundliche Gr\xc3\xbcsse / Best Regards\nAlf Zips\nRENTNER  ;)\nBourdon-Haenni\nGmbH \xc2\xb7 Bodenseeallee 7\xc2\xb7 DE-78333 Stockach \xc2\xb7 Germany\nPhone +49 (0)7771 6474 400 \xc2\xb7 Fax +49 (0)7771 6474 401 \xc2\xb7 sales@bourdon-haenni.com \xc2\xb7 http://bourdon.baumer.com\nDeutsche Bank, Kto. 042 34 26, BLZ 690 700 32 \xc2\xb7 SWIFT-BIC: DEUTDE6F690 \xc2\xb7 IBAN:DE32690700320042342600\nGesch\xc3\xa4ftsf\xc3\xbchrer: Dr. Oliver Vietze, Dr. Alf Zips \xc2\xb7 Amtsgericht Freiburg i.Br, Baden-W\xc3\xbcrttenberg HRB 708882 \xc2\xb7 Ust.-ID-Nr. DE811221712\n-----Urspr\xc3\xbcngliche Nachricht-----\nVon: PRDESTO002@baumernet.org [mailto:PRDESTO002@baumernet.org]\nGesendet: Montag, 8. Januar 2018 15:47\nAn: Zips Alf\nBetreff: Message from "PRDESTO002"\nDiese E-Mail wurde gesendet von "PRDESTO002" (MP C3004).\nScan-Datum: 08.01.2018 15:44:50 (+0100)\nR\xc3\xbcckfragen an: PRDESTO002@baumernet.org\n'
p19
sS'msg_reply_to_id_mime'
p20
S'<20180108154450ZO.DCSML-S002500000.002673C4F18A@emea.baumernet.org>'
p21
sS'msg_label'
p22
(lp23
VCATEGORY_PERSONAL
p24
aVINBOX
p25
asS'msg_cc'
p26
NsS'msg_bcc'
p27
Ns.