(dp1
S'msg_subject'
p2
S'New login to Twitter from Chrome on Android'
p3
sS'msg_from'
p4
S'Twitter <verify@twitter.com>'
p5
sS'msg_to'
p6
S'Clara <marquardt.clara@gmail.com>'
p7
sS'msg_inbox_outbox'
p8
S'inbox'
p9
sS'msg_id'
p10
V16130af99de1f937
p11
sS'msg_threadid'
p12
V16130af99de1f937
p13
sS'msg_date'
p14
S'Fri, 26 Jan 2018 04:17:49 +0000'
p15
sS'msg_id_mime'
p16
S'<63.E2.50951.DEBAA6A5@twitter.com>'
p17
sS'msg_text'
p18
S"Twitter\nWe noticed a recent login for your account @ClaraMarquardt.\nDevice: Chrome on Android\nLocation: Chicago, IL\n*Location is approximate based on the login's IP address.\nIf this was you\nGreat! There's nothing else you need to do.\nIf this wasn\xe2\x80\x99t you\nYour account may have been compromised and you should take a few steps to make sure your account is secure.\nTo start, reset your password now.\r"
p19
sS'msg_reply_to_id_mime'
p20
Fnan
sS'msg_label'
p21
(lp22
VCATEGORY_PERSONAL
p23
aVINBOX
p24
asS'msg_cc'
p25
NsS'msg_bcc'
p26
Ns.