(dp1
S'msg_subject'
p2
S'Re:'
p3
sS'msg_from'
p4
S'alf zips <alfzips@gmail.com>'
p5
sS'msg_to'
p6
S'Clara Marquardt <marquardt.clara@gmail.com>'
p7
sS'msg_inbox_outbox'
p8
S'inbox'
p9
sS'msg_id'
p10
V1610dc0ff1d77c55
p11
sS'msg_threadid'
p12
V160fe08b93de5149
p13
sS'msg_date'
p14
S'Fri, 19 Jan 2018 10:30:05 +0100'
p15
sS'msg_id_mime'
p16
S'<CAF34eQF5Tpuji0uhnOwhsagmp8pL56Q41-Kws__0Qn+wd4vtqQ@mail.gmail.com>'
p17
sS'msg_text'
p18
S'Da ist die B\xc3\xbcrokratie einfach: zwei Alternativen. Kein Geld. Oder Geld an\nPapa \xf0\x9f\x98\x8e\nAm 19.01.2018 09:04 schrieb "Clara Marquardt" <marquardt.clara@gmail.com>:\n'
p19
sS'msg_reply_to_id_mime'
p20
S'<6515FEBF-578D-4EDC-A33A-A2A98D783532@gmail.com>'
p21
sS'msg_label'
p22
(lp23
VIMPORTANT
p24
aVCATEGORY_PERSONAL
p25
aVINBOX
p26
asS'msg_cc'
p27
NsS'msg_bcc'
p28
Ns.