(dp1
S'msg_subject'
p2
S'Re: Chatting about LBS'
p3
sS'msg_from'
p4
S'Christoph Mueller <cmueller.mba2019@london.edu>'
p5
sS'msg_to'
p6
S'Clara Marquardt <marquardt.clara@gmail.com>'
p7
sS'msg_inbox_outbox'
p8
S'inbox'
p9
sS'msg_id'
p10
V16184a63407bac79
p11
sS'msg_threadid'
p12
V161671e529511d7a
p13
sS'msg_date'
p14
S'Sun, 11 Feb 2018 11:35:36 +0000'
p15
sS'msg_id_mime'
p16
S'<DB5PR03MB1398520B4563AF0140FA2C62EBF00@DB5PR03MB1398.eurprd03.prod.outlook.com>'
p17
sS'msg_text'
p18
S'Sounds good!\n'
p19
sS'msg_reply_to_id_mime'
p20
S'<F019D5E2-F28A-402A-A08D-CDFD25124B4C@gmail.com>'
p21
sS'msg_label'
p22
(lp23
VIMPORTANT
p24
aVCATEGORY_PERSONAL
p25
aVINBOX
p26
asS'msg_cc'
p27
NsS'msg_bcc'
p28
Ns.