(dp1
S'msg_subject'
p2
S"Re: You've been invited to an interview for MBA2020 - Round 2"
p3
sS'msg_from'
p4
S'alf zips <alfzips@gmail.com>'
p5
sS'msg_to'
p6
S'Clara Marquardt <marquardt.clara@gmail.com>'
p7
sS'msg_inbox_outbox'
p8
S'inbox'
p9
sS'msg_id'
p10
V1616c68918ee016a
p11
sS'msg_threadid'
p12
V161666eb6d60a3b4
p13
sS'msg_date'
p14
S'Tue, 6 Feb 2018 19:37:26 +0100'
p15
sS'msg_id_mime'
p16
S'<CAF34eQHmeBjg0aFnkOV+pBhFc0mK1vRZ3UthyvUG9NS3rLv+hw@mail.gmail.com>'
p17
sS'msg_text'
p18
S'hallo h\xc3\xbchnchen dein rentier hat \xc3\xbcber LBS gegoogelt... vielleicht bewerbe\nich mich auch:)\nalso ich w\xc3\xbcrde in dem Video nur auf einen Aspekt eingehen - auch wegne der\nzeit - : die Flexibility of LBS MBA:\n- high flexible exit point\n- waver for non interesting subjects\n- live business Project\nda du schon weisst was du willst, kannst du dir beim LBS das holen was du\nwirklich lernen m\xc3\xb6chtest.\n:))\n'
p19
sS'msg_reply_to_id_mime'
p20
S'<E194BB49-6CB6-4217-AF0C-14153C1F7FD7@gmail.com>'
p21
sS'msg_label'
p22
(lp23
VIMPORTANT
p24
aVCATEGORY_PERSONAL
p25
aVINBOX
p26
asS'msg_cc'
p27
NsS'msg_bcc'
p28
Ns.