(dp1
S'msg_subject'
p2
S'Troubleshooting for KnowingMe'
p3
sS'msg_from'
p4
S'Bec Weeks <weeks.rebecca@gmail.com>'
p5
sS'msg_to'
p6
S'Clara Marquardt <marquardt.clara@gmail.com>'
p7
sS'msg_inbox_outbox'
p8
S'inbox'
p9
sS'msg_id'
p10
V161722c462552ea5
p11
sS'msg_threadid'
p12
V161722c462552ea5
p13
sS'msg_date'
p14
S'Wed, 7 Feb 2018 16:28:38 -0500'
p15
sS'msg_id_mime'
p16
S'<CAPp_zuqBcfTHVwX012Foi5B3ShRp4qHyDq4JMVM2T=6xF+G3_Q@mail.gmail.com>'
p17
sS'msg_text'
p18
S"Hi Clara,\nAlex Blau (cc'd), who's coordinating our KnowingMe work at ideas42, is\nrunning into some problems with the latest version of the app. I believe\nthere's an issue with pulling his email data.\nI'm hoping you can help Alex troubleshoot this issue? (He's an expert Zoom\nuser, so if it's easiest, a video call with screen sharing could be an\noption!)\nCheers,\nBec\n"
p19
sS'msg_reply_to_id_mime'
p20
Fnan
sS'msg_label'
p21
(lp22
VIMPORTANT
p23
aVCATEGORY_PERSONAL
p24
aVINBOX
p25
asS'msg_cc'
p26
S'Alex Blau <ablau@ideas42.org>'
p27
sS'msg_bcc'
p28
Ns.