(dp1
S'msg_subject'
p2
S'Re:'
p3
sS'msg_from'
p4
S'alf zips <alfzips@gmail.com>'
p5
sS'msg_to'
p6
S'Clara Marquardt <marquardt.clara@gmail.com>'
p7
sS'msg_inbox_outbox'
p8
S'inbox'
p9
sS'msg_id'
p10
V161469705ddd341c
p11
sS'msg_threadid'
p12
V1613b5cfddc33832
p13
sS'msg_date'
p14
S'Tue, 30 Jan 2018 11:22:36 +0100'
p15
sS'msg_id_mime'
p16
S'<CAF34eQEoshXEYv2AkESRzD-5xw=pyx3_nuqB+SggiT3Nka38xA@mail.gmail.com>'
p17
sS'msg_text'
p18
S'die gibt es schon::: eMuli  k\xc3\xb6nnne wir umtaufen in eChicken\n'
p19
sS'msg_reply_to_id_mime'
p20
S'<DFC7E087-D797-41F8-A3F4-F95088063CE9@gmail.com>'
p21
sS'msg_label'
p22
(lp23
VIMPORTANT
p24
aVCATEGORY_PERSONAL
p25
aVINBOX
p26
asS'msg_cc'
p27
NsS'msg_bcc'
p28
Ns.