(dp1
S'msg_subject'
p2
S'=?UTF-8?Q?MIT_330_W=C3=B6rter?='
p3
sS'msg_from'
p4
S'Ulla Marquardt <ulla.marquardt@yahoo.de>'
p5
sS'msg_to'
p6
S'Clara Marquardt <marquardt.clara@gmail.com>, \r\n\talf zips <alfzips@gmail.com>'
p7
sS'msg_inbox_outbox'
p8
S'inbox'
p9
sS'msg_id'
p10
V160d1afcd391575f
p11
sS'msg_threadid'
p12
V160d1afcd391575f
p13
sS'msg_date'
p14
S'Sun, 7 Jan 2018 17:34:03 +0000 (UTC)'
p15
sS'msg_id_mime'
p16
S'<609313033.3210909.1515346444050@mail.yahoo.com>'
p17
sS'msg_text'
p18
S'... voila...\n      Von: Clara Marquardt <marquardt.clara@gmail.com>\n An: alf zips <alfzips@gmail.com>; Ulla Marquardt <ulla.marquardt@yahoo.de> \n Gesendet: 8:05 Sonntag, 7.Januar 2018\n Betreff: Re: \n   \nHallo,\xc2\xa0\nhuhn kann sich den text nicht mehr anschauen. Mache mich jetzt also mal an die presentation. Draft (attached ) hat jetzt 387 W\xc3\xb6rter - also nicht mehr die welt von 330. Das Hauptproblem das ich sehe:\n1. die Beispiele muesssen noch besser ausgearbeitet werden (k\xc3\xbcrzer, pr\xc3\xa4ziser und mehr zahlen (das wird schwer))\nalso,\nich finde die struktur auch sehr gut. \nich habe jetzt mal geschaut, was man k\xc3\xbcrzen k\xc3\xb6nnte. und bin aktuell bei 412 w\xc3\xb6rtern.\naber mit besseren formulierungen l\xc3\xa4st sich sicher noch einiges k\xc3\xbcrzen. den letzten paragraph (knowing me) and why sloan is the best place - den w\xc3\xbcrde ich mehr oder weniger so lassen. \nbye bye cherie\n      Von: Clara Marquardt <marquardt.clara@gmail.com>\n An: alf zips <alfzips@gmail.com>; Ulla Marquardt <ulla.marquardt@yahoo.de> \n Gesendet: 10:55 Samstag, 6.Januar 2018\n Betreff: \n   \nAlso es ist noch viel Arbeit - \n(a) ich glaube die Struktur passt \n(b) es ist 200 W\xc3\xb6rter zu lang (max 330 ohne die Begr\xc3\xbc\xc3\x9fung und das Dankesch\xc3\xb6n)\n(c) das Haupt problem sind die Beispiele die nicht sehr ausgereift sind - diese m\xc3\xbcssen VIEl k\xc3\xbcrzer werden\ndann muss nat\xc3\xbcrlich noch alles besser vormuliert werden\nIch muss morgen diesen essay irgendwie in form bringen - Sonntag dan die presentation\n   <MIT draft V10000 - Cover \xc2\xa0letter_Ulla_2.docx>\n<MIT draft V10000 - Cover letter_herkules.docx>\n<MIT draft V10000 - Cover letter_herkules.docx>\n  '
p19
sS'msg_reply_to_id_mime'
p20
S'<12359281-25A4-4DD4-8DF6-AFAD3028E4E0@gmail.com>'
p21
sS'msg_label'
p22
(lp23
VIMPORTANT
p24
aVCATEGORY_PERSONAL
p25
aVINBOX
p26
asS'msg_cc'
p27
NsS'msg_bcc'
p28
Ns.