(dp1
S'msg_subject'
p2
S'AW:'
p3
sS'msg_from'
p4
S'Ulla Marquardt <ulla.marquardt@yahoo.de>'
p5
sS'msg_to'
p6
S'"marquardt.clara@gmail.com" <marquardt.clara@gmail.com>'
p7
sS'msg_inbox_outbox'
p8
S'inbox'
p9
sS'msg_id'
p10
V1614d287113c3f19
p11
sS'msg_threadid'
p12
V1614c02f2a8dbd98
p13
sS'msg_date'
p14
S'Wed, 31 Jan 2018 16:58:51 +0000 (UTC)'
p15
sS'msg_id_mime'
p16
S'<501679646.581413.1517417931440@mail.yahoo.com>'
p17
sS'msg_text'
p18
S'Liebes Huehnchen\nEssay ist sehr gut.Schau aber nochmal den Satz mit "palatable , da muss nach palatable ein Komma.\xc2\xa0Auch verstehe ich nicht ganz ob Megan solutions designed hat die f\xc3\xbcr andere palatable sind / oder in ihrer Struktur \xc2\xa0/ ihrem Umfang. Irgendwie ist mir der Satz nicht ganz klar. Auch ob sie die Projekte bei Booth gemacht hat mit anderen.Vielleicht ist mein Englisch auch zu schlecht. \xc2\xa0Also, lange rede kurzer Sinn: schau ^ \xc3\xbcberpr\xc3\xbcfe diesen Satz einfach nochmal.\xc2\xa0Ansonsten finde ich den Essay wirklich sehr sch\xc3\xb6n.auch dass du Design thinking mehr hereingebracht hast. Ist prima. Weil dich das ja sehr begeistert. \xc2\xa0Deine Begeisterung f\xc3\xbcr Andere und f\xc3\xbcrBooth kommt sehr menschlich r\xc3\xbcber. Und du wirkst sympathisch. \xc2\xa0Das ist prima. \xc2\xa0\nLieb dich\nGesendet von Yahoo Mail auf Android \n \n  Am Mi., Jan. 31, 2018 at 12:38 schrieb Clara Marquardt<marquardt.clara@gmail.com>:   genau 250 W\xc3\xb6rter (habe geschaut - mann kann nicht ueberschreiten + unformatiert da mann es einfach in ein text Feld kopieren muss). \nmorgen abend kann ich nochmal dran arbeiten. Deadline ist erst am Freitag aber Mus mich wirklich auf Interview vorbereiten also muss dies morgen weg. \nwas meint ihr (falls schlecht - bitte sagte es!) \n \n'
p19
sS'msg_reply_to_id_mime'
p20
S'<1B81A264-3323-4151-BB65-C3F8EFB0EFCA@gmail.com>'
p21
sS'msg_label'
p22
(lp23
VIMPORTANT
p24
aVCATEGORY_PERSONAL
p25
aVINBOX
p26
asS'msg_cc'
p27
S'Alf Zips <alfzips@gmail.com>'
p28
sS'msg_bcc'
p29
Ns.