(dp1
S'msg_subject'
p2
S'Re:'
p3
sS'msg_from'
p4
S'alf zips <alfzips@gmail.com>'
p5
sS'msg_to'
p6
S'Clara Marquardt <marquardt.clara@gmail.com>'
p7
sS'msg_inbox_outbox'
p8
S'inbox'
p9
sS'msg_id'
p10
V160d2bcc610fe9bd
p11
sS'msg_threadid'
p12
V160cae524f17eafa
p13
sS'msg_date'
p14
S'Sun, 7 Jan 2018 23:27:52 +0100'
p15
sS'msg_id_mime'
p16
S'<CAF34eQH62xz6H_YP3umvLGVWj-BdQ9y+NV2exzRex-CS7BzOrA@mail.gmail.com>'
p17
sS'msg_text'
p18
S'hallo H\xc3\xbchnchen anbei mein Video text mit einer Struktur\n und ich denke das ist ganz dicht an dem was es sein wird,\n und da es sooo kalt bei dir ist... kommt *heute* noch ein care paket zu\ndir: also den MAnn nicht wegschicken, alles organisch\n:)))\n[image: Inline image 1]\n'
p19
sS'msg_reply_to_id_mime'
p20
S'<B49C06D0-B977-4AED-889C-0BD9A8DE8FF5@gmail.com>'
p21
sS'msg_label'
p22
(lp23
VIMPORTANT
p24
aVCATEGORY_PERSONAL
p25
aVINBOX
p26
asS'msg_cc'
p27
NsS'msg_bcc'
p28
Ns.