(dp1
S'msg_subject'
p2
S'Re:'
p3
sS'msg_from'
p4
S'Clara Marquardt <marquardt.clara@gmail.com>'
p5
sS'msg_to'
p6
S'alf zips <alfzips@gmail.com>'
p7
sS'msg_inbox_outbox'
p8
S'outbox'
p9
sS'msg_id'
p10
V15fe497f8ae06301
p11
sS'msg_threadid'
p12
V15fdc103786f1f80
p13
sS'msg_date'
p14
S'Wed, 22 Nov 2017 10:38:04 -0600'
p15
sS'msg_id_mime'
p16
S'<1B132235-1126-4005-ADEE-526A6655DEB6@gmail.com>'
p17
sS'msg_text'
p18
S'HUHN - kauf uns ein Bott und lass uns abhauen\r'
p19
sS'msg_reply_to_id_mime'
p20
S'<CAF34eQEnXSVftCTWBBqcas2pQ_pJqX6F+wnn+RmYJfQ=MvZ5Nw@mail.gmail.com>'
p21
sS'msg_label'
p22
(lp23
VIMPORTANT
p24
aVSENT
p25
asS'msg_cc'
p26
NsS'msg_bcc'
p27
Ns.