(dp1
S'msg_subject'
p2
S''
sS'msg_from'
p3
S'Clara Marquardt <marquardt.clara@gmail.com>'
p4
sS'msg_to'
p5
S'Ulla Marquardt <ulla.marquardt@yahoo.de>,\r\n alf zips <alfzips@gmail.com>'
p6
sS'msg_inbox_outbox'
p7
S'outbox'
p8
sS'msg_id'
p9
V1606426d8faf94b8
p10
sS'msg_threadid'
p11
V1606426d8faf94b8
p12
sS'msg_date'
p13
S'Sun, 17 Dec 2017 05:05:52 -0600'
p14
sS'msg_id_mime'
p15
S'<C05C61F6-2925-4E0B-8B1D-B9106075048D@gmail.com>'
p16
sS'msg_text'
p17
S'Hallo, \nhier das neue draft - ist noch nicht in sehr gutem zustand also nicht n\xc3\xb6tig ganz detaillierte \xc3\x84nderungen zu machen. was sehr hilfreich w\xc3\xa4re ist generelles feedback. Habe auch den alten essay (LBS_V14.Pdf) (vor den strukutur/inhalt \xc3\x84nderungen) angehangen.\nHuhn\n'
p18
sS'msg_reply_to_id_mime'
p19
Fnan
sS'msg_label'
p20
(lp21
VIMPORTANT
p22
aVSENT
p23
asS'msg_cc'
p24
NsS'msg_bcc'
p25
Ns.