(dp1
S'msg_subject'
p2
S''
sS'msg_from'
p3
S'Clara Marquardt <marquardt.clara@gmail.com>'
p4
sS'msg_to'
p5
S'Ulla Marquardt <ulla.marquardt@yahoo.de>,\r\n alf zips <alfzips@gmail.com>'
p6
sS'msg_inbox_outbox'
p7
S'outbox'
p8
sS'msg_id'
p9
V1614c02f2a8dbd98
p10
sS'msg_threadid'
p11
V1614c02f2a8dbd98
p12
sS'msg_date'
p13
S'Wed, 31 Jan 2018 05:38:35 -0600'
p14
sS'msg_id_mime'
p15
S'<1B81A264-3323-4151-BB65-C3F8EFB0EFCA@gmail.com>'
p16
sS'msg_text'
p17
S'genau 250 W\xc3\xb6rter (habe geschaut - mann kann nicht ueberschreiten + unformatiert da mann es einfach in ein text Feld kopieren muss). \nmorgen abend kann ich nochmal dran arbeiten. Deadline ist erst am Freitag aber Mus mich wirklich auf Interview vorbereiten also muss dies morgen weg. \nwas meint ihr (falls schlecht - bitte sagte es!)\n'
p18
sS'msg_reply_to_id_mime'
p19
Fnan
sS'msg_label'
p20
(lp21
VIMPORTANT
p22
aVSENT
p23
asS'msg_cc'
p24
NsS'msg_bcc'
p25
Ns.