(dp1
S'msg_subject'
p2
S'Birthday problem'
p3
sS'msg_from'
p4
S'Clara Marquardt <marquardt.clara@gmail.com>'
p5
sS'msg_to'
p6
S'nerdiestbookclubever@lists.uchicago.edu'
p7
sS'msg_inbox_outbox'
p8
S'outbox'
p9
sS'msg_id'
p10
V15fa9e089604b554
p11
sS'msg_threadid'
p12
V15fa9d06d6b41d3c
p13
sS'msg_date'
p14
S'Sat, 11 Nov 2017 00:59:45 -0600'
p15
sS'msg_id_mime'
p16
S'<90102CCC-A09C-445E-9396-3040714E14E6@gmail.com>'
p17
sS'msg_text'
p18
S'Here the link to the seemingly very straightforward answer to the birthday problem https://puzzling.stackexchange.com/questions/6394/birthdays-on-consecutive-days <https://puzzling.stackexchange.com/questions/6394/birthdays-on-consecutive-days>\nHere are some more answers:  https://www.google.com/search?q=probability+problem+number+adjacent+birthdays&oq=probability+problem+number+adjacent+birthdays&aqs=chrome..69i57.19137j0j1&sourceid=chrome&ie=UTF-8 <https://www.google.com/search?q=probability+problem+number+adjacent+birthdays&oq=probability+problem+number+adjacent+birthdays&aqs=chrome..69i57.19137j0j1&sourceid=chrome&ie=UTF-8>\n---------\nClara Marquardt\nProject Associate\nUChicago Crime Lab\nurbanlabs.uchicago.edu <http://urbanlabs.uchicago.edu/>\n \nUniversity of Chicago Urban Labs \n33 N. LaSalle Street, Suite 1600 \nChicago, IL 60602\n\n'
p19
sS'msg_reply_to_id_mime'
p20
S'<44C125DFA410A74EAC5792E394C17FC753A095@xm-mbx-08-prod>'
p21
sS'msg_label'
p22
(lp23
VSENT
p24
asS'msg_cc'
p25
NsS'msg_bcc'
p26
Ns.