(dp1
S'msg_subject'
p2
S'Re: Troubleshooting for KnowingMe'
p3
sS'msg_from'
p4
S'Clara Marquardt <marquardt.clara@gmail.com>'
p5
sS'msg_to'
p6
S'Alex Blau <ablau@ideas42.org>'
p7
sS'msg_inbox_outbox'
p8
S'outbox'
p9
sS'msg_id'
p10
V161786ee65fcac6d
p11
sS'msg_threadid'
p12
V161722c462552ea5
p13
sS'msg_date'
p14
S'Thu, 8 Feb 2018 20:39:47 -0600'
p15
sS'msg_id_mime'
p16
S'<2AB3D6EA-E51E-4335-9A9D-896C04FB9B6C@gmail.com>'
p17
sS'msg_text'
p18
S'Hi Alex, \n11 am EST tomorrow would be perfect (if this still works for you) - I may or may not make it to NYC by then given the snow storm in Chicago so probably best to plan for a call. I could call you on Skype (I am at claramarquardt) or I could send you a Zoom invite. \nLooking forward to speaking tomorrow, \nClara\n'
p19
sS'msg_reply_to_id_mime'
p20
S'<CAMr8H-k7ZKqHMnX5g3ZWcPkVNaeQd38qqPZQNju656qVR2Cg2g@mail.gmail.com>'
p21
sS'msg_label'
p22
(lp23
VIMPORTANT
p24
aVSENT
p25
asS'msg_cc'
p26
NsS'msg_bcc'
p27
Ns.