(dp1
S'msg_subject'
p2
S'Re: Reference for Clara'
p3
sS'msg_from'
p4
S'Clara Marquardt <marquardt.clara@gmail.com>'
p5
sS'msg_to'
p6
S'"Unverzagt, Eric" <eunverz@fas.harvard.edu>'
p7
sS'msg_inbox_outbox'
p8
S'outbox'
p9
sS'msg_id'
p10
V15fcb17f63b01f40
p11
sS'msg_threadid'
p12
V15f895b93c873348
p13
sS'msg_date'
p14
S'Fri, 17 Nov 2017 11:47:42 -0600'
p15
sS'msg_id_mime'
p16
S'<FC26177A-7F56-412A-BE6F-E0189E40ED5A@gmail.com>'
p17
sS'msg_text'
p18
S'Perfect - Just wanted to make sure that this did not get lost in my email to Sendhil! \nMany thanks!\nClara\n'
p19
sS'msg_reply_to_id_mime'
p20
S'<SN4PR0701MB3648E02CF407FC544E1A7348E52F0@SN4PR0701MB3648.namprd07.prod.outlook.com>'
p21
sS'msg_label'
p22
(lp23
VIMPORTANT
p24
aVSENT
p25
asS'msg_cc'
p26
NsS'msg_bcc'
p27
Ns.