(dp1
S'msg_subject'
p2
S'Re: Chatting about LBS'
p3
sS'msg_from'
p4
S'Clara Marquardt <marquardt.clara@gmail.com>'
p5
sS'msg_to'
p6
S'Christoph Mueller <cmueller.mba2019@london.edu>'
p7
sS'msg_inbox_outbox'
p8
S'outbox'
p9
sS'msg_id'
p10
V161987e2391ee432
p11
sS'msg_threadid'
p12
V161671e529511d7a
p13
sS'msg_date'
p14
S'Thu, 15 Feb 2018 02:03:17 -0600'
p15
sS'msg_id_mime'
p16
S'<089CB4D6-2FC1-44D9-89C1-90145410B38D@gmail.com>'
p17
sS'msg_text'
p18
S'Hi Christoph, \nI just wanted to send you a note to say a huge thank you for taking the time to speak yesterday! \nI took a lot away from our conversation and now feel like I have a much better sense of how I could make the most of time at LBS given my interests in technology and entrepreneurship. \nMany thanks and I will make sure to keep you posted on how things turn out!\nBest wishes, \nClara\n'
p19
sS'msg_reply_to_id_mime'
p20
S'<DB5PR03MB1398520B4563AF0140FA2C62EBF00@DB5PR03MB1398.eurprd03.prod.outlook.com>'
p21
sS'msg_label'
p22
(lp23
VIMPORTANT
p24
aVSENT
p25
asS'msg_cc'
p26
NsS'msg_bcc'
p27
Ns.