(dp1
S'msg_subject'
p2
S"Fwd: You've been invited to an interview for MBA2020 - Round 2"
p3
sS'msg_from'
p4
S'Clara Marquardt <marquardt.clara@gmail.com>'
p5
sS'msg_to'
p6
S'Ulla Marquardt <ulla.marquardt@yahoo.de>,\r\n alf zips <alfzips@gmail.com>'
p7
sS'msg_inbox_outbox'
p8
S'outbox'
p9
sS'msg_id'
p10
V1616710a251986ed
p11
sS'msg_threadid'
p12
V161666eb6d60a3b4
p13
sS'msg_date'
p14
S'Mon, 5 Feb 2018 11:43:14 -0600'
p15
sS'msg_id_mime'
p16
S'<9419E1AD-0697-42C7-89B9-D6FDDC5F740C@gmail.com>'
p17
sS'msg_text'
p18
S'Hier die details der video Sache da ihr gefragt hattet. Es sind 1.30 Minuten pro frage, die erste frage ist wie schon gesagt: \r'
p19
sS'msg_reply_to_id_mime'
p20
Fnan
sS'msg_label'
p21
(lp22
VIMPORTANT
p23
aVSENT
p24
asS'msg_cc'
p25
NsS'msg_bcc'
p26
Ns.