(dp1
S'msg_subject'
p2
S'Re: Your Flight Receipt - SHREYAS LAKHTAKIA 22DEC17'
p3
sS'msg_from'
p4
S'Clara Marquardt <marquardt.clara@gmail.com>'
p5
sS'msg_to'
p6
S'Shreyas Lakhtakia <shreyaslakhtakia@gmail.com>'
p7
sS'msg_inbox_outbox'
p8
S'outbox'
p9
sS'msg_id'
p10
V1607507e82a091fd
p11
sS'msg_threadid'
p12
V16074c34fd026f1e
p13
sS'msg_date'
p14
S'Wed, 20 Dec 2017 11:45:39 -0600'
p15
sS'msg_id_mime'
p16
S'<0911E8EC-CA55-4DFA-87B4-28C9BF5BA7EE@gmail.com>'
p17
sS'msg_text'
p18
S':) : )\r'
p19
sS'msg_reply_to_id_mime'
p20
S'<CALEjPT-ubCMm5xosJO8Y4nAZMnZcxpUpRrUoFPZ=R0_mMxH0ww@mail.gmail.com>'
p21
sS'msg_label'
p22
(lp23
VSENT
p24
asS'msg_cc'
p25
NsS'msg_bcc'
p26
Ns.