(dp1
S'msg_subject'
p2
S'Re: MBA Reference'
p3
sS'msg_from'
p4
S'Clara Marquardt <marquardt.clara@gmail.com>'
p5
sS'msg_to'
p6
S'Narinder Singh <i@narinder.com>'
p7
sS'msg_inbox_outbox'
p8
S'outbox'
p9
sS'msg_id'
p10
V16070f7190a8a5b3
p11
sS'msg_threadid'
p12
V15f93274142b8e2a
p13
sS'msg_date'
p14
S'Tue, 19 Dec 2017 16:48:49 -0600'
p15
sS'msg_id_mime'
p16
S'<92B93343-07BE-48C8-9147-2D39E0CA23E0@gmail.com>'
p17
sS'msg_text'
p18
S'Thank you!\n'
p19
sS'msg_reply_to_id_mime'
p20
S'<CAN0c9+mDWcruw3bzavovBuq3oJtSDOiwN8FoUzp1xHDm7x5OSQ@mail.gmail.com>'
p21
sS'msg_label'
p22
(lp23
VSENT
p24
asS'msg_cc'
p25
NsS'msg_bcc'
p26
Ns.