(dp1
S'msg_subject'
p2
S'Re: Chatting about Sloan'
p3
sS'msg_from'
p4
S'Clara Marquardt <marquardt.clara@gmail.com>'
p5
sS'msg_to'
p6
S'Jared Johnson <jrjohns@mit.edu>'
p7
sS'msg_inbox_outbox'
p8
S'outbox'
p9
sS'msg_id'
p10
V16113efdb89a67e3
p11
sS'msg_threadid'
p12
V160e74917f570ebf
p13
sS'msg_date'
p14
S'Sat, 20 Jan 2018 08:19:00 -0600'
p15
sS'msg_id_mime'
p16
S'<45DB8D48-7FAD-4B21-93E9-A7A5BC19AC57@gmail.com>'
p17
sS'msg_text'
p18
S'Hi Jared, \nI just wanted to thank you again for taking the time to chat yesterday and for being so open about sharing your experiences! I was inspired by all the projects that you have been working on and left feeling, more so than ever, excited about the road ahead!\nI will keep you posted on how things turn out : ) \nMany thanks and best wishes for the spring term, \nClara\n'
p19
sS'msg_reply_to_id_mime'
p20
S'<CACZbXav=tFsNM0z95Rs=+rwQV2+EZBTKCgRDZ1YXL8wWBzaBOg@mail.gmail.com>'
p21
sS'msg_label'
p22
(lp23
VSENT
p24
asS'msg_cc'
p25
NsS'msg_bcc'
p26
Ns.