(dp1
S'msg_subject'
p2
S'Re: Chatting about Sloan'
p3
sS'msg_from'
p4
S'Clara Marquardt <marquardt.clara@gmail.com>'
p5
sS'msg_to'
p6
S'Jared Johnson <jrjohns@mit.edu>'
p7
sS'msg_inbox_outbox'
p8
S'outbox'
p9
sS'msg_id'
p10
V160f0e67e065e33a
p11
sS'msg_threadid'
p12
V160e74917f570ebf
p13
sS'msg_date'
p14
S'Sat, 13 Jan 2018 13:02:04 -0600'
p15
sS'msg_id_mime'
p16
S'<05B600A6-921D-440C-B0BD-4BE79552F09B@gmail.com>'
p17
sS'msg_text'
p18
S'Hi Jared, \nThat sounds great. How about 3pm EST this Friday? I am free all day on Friday so could also do earlier/later. \nI will send you a calendar invite once we have confirmed the time.\nMany thanks and best wishes,\nClara\n'
p19
sS'msg_reply_to_id_mime'
p20
S'<CACZbXavgVoOmW0rx-nvxEO-A3ipfY0Gz6+g=YS+UijrbzK_V8Q@mail.gmail.com>'
p21
sS'msg_label'
p22
(lp23
VIMPORTANT
p24
aVSENT
p25
asS'msg_cc'
p26
NsS'msg_bcc'
p27
Ns.