(dp1
S'msg_subject'
p2
S'Re:'
p3
sS'msg_from'
p4
S'Clara Marquardt <marquardt.clara@gmail.com>'
p5
sS'msg_to'
p6
S'Ulla Marquardt <ulla.marquardt@yahoo.de>'
p7
sS'msg_inbox_outbox'
p8
S'outbox'
p9
sS'msg_id'
p10
V160898cdeedbd562
p11
sS'msg_threadid'
p12
V1607f8ef5e463977
p13
sS'msg_date'
p14
S'Sun, 24 Dec 2017 11:23:16 -0600'
p15
sS'msg_id_mime'
p16
S'<1454D791-DAAC-4A03-BFA2-1FCEF8668330@gmail.com>'
p17
sS'msg_text'
p18
S'Danke:)\r'
p19
sS'msg_reply_to_id_mime'
p20
S'<173176989.7068633.1514122351595@mail.yahoo.com>'
p21
sS'msg_label'
p22
(lp23
VSENT
p24
asS'msg_cc'
p25
NsS'msg_bcc'
p26
Ns.