(dp1
S'msg_subject'
p2
S'Re: 2 down, chicago to go'
p3
sS'msg_from'
p4
S'Clara Marquardt <marquardt.clara@gmail.com>'
p5
sS'msg_to'
p6
S'Narinder Singh <i@narinder.com>'
p7
sS'msg_inbox_outbox'
p8
S'outbox'
p9
sS'msg_id'
p10
V160a1458de8b2ace
p11
sS'msg_threadid'
p12
V1607c0bc6e02a0eb
p13
sS'msg_date'
p14
S'Fri, 29 Dec 2017 01:56:15 -0600'
p15
sS'msg_id_mime'
p16
S'<BB131A47-B333-470F-88AC-572BC4CB5750@gmail.com>'
p17
sS'msg_text'
p18
S'Thank you so much for making time for these especially at this time of the year!\nStill in the midst of essays - planning to submit on Tuesday. Let me know if you run into any problems with the Booth reference!\nClara\n'
p19
sS'msg_reply_to_id_mime'
p20
S'<CAN0c9+kvKpv-i_1H7yFZF8otXugQxjvVH6dBNSWVjoGNZ013hA@mail.gmail.com>'
p21
sS'msg_label'
p22
(lp23
VSENT
p24
asS'msg_cc'
p25
NsS'msg_bcc'
p26
Ns.