(dp1
S'msg_subject'
p2
S'Re: Your Whole Foods Market order confirmation'
p3
sS'msg_from'
p4
S'Clara Marquardt <marquardt.clara@gmail.com>'
p5
sS'msg_to'
p6
S'alf zips <alfzips@gmail.com>'
p7
sS'msg_inbox_outbox'
p8
S'outbox'
p9
sS'msg_id'
p10
V160d2d201460591e
p11
sS'msg_threadid'
p12
V160d2be25e4d9801
p13
sS'msg_date'
p14
S'Sun, 7 Jan 2018 16:51:03 -0600'
p15
sS'msg_id_mime'
p16
S'<273628F0-C582-432A-9534-F4D055729255@gmail.com>'
p17
sS'msg_text'
p18
S': ) : ) : ) :) : ) :) :) \nhttps://finance.yahoo.com/news/exclusive-fitbits-6-billion-nights-sleep-data-reveals-us-110058417.html <https://finance.yahoo.com/news/exclusive-fitbits-6-billion-nights-sleep-data-reveals-us-110058417.html>\n'
p19
sS'msg_reply_to_id_mime'
p20
S'<CAF34eQHxqhVJcT-1Ax6L1FJZ9Q-h_VmFH8Rng9a22wBa9akNqA@mail.gmail.com>'
p21
sS'msg_label'
p22
(lp23
VIMPORTANT
p24
aVSENT
p25
asS'msg_cc'
p26
NsS'msg_bcc'
p27
Ns.