(dp1
S'msg_subject'
p2
S'RE: Reference for Clara'
p3
sS'msg_from'
p4
S'Clara Marquardt <marquardt.clara@gmail.com>'
p5
sS'msg_to'
p6
S'"Unverzagt, Eric" <eunverz@fas.harvard.edu>'
p7
sS'msg_inbox_outbox'
p8
S'outbox'
p9
sS'msg_id'
p10
V15fcb0b6d41632ce
p11
sS'msg_threadid'
p12
V15f895b93c873348
p13
sS'msg_date'
p14
S'Fri, 17 Nov 2017 09:34:04 -0800'
p15
sS'msg_id_mime'
p16
S'<CAC77MjKvEX8mJx3t4ExzNUpJ6rqH9kBLun2SpHx-6VcuH7c9=w@mail.gmail.com>'
p17
sS'msg_text'
p18
S"Hi Eric,\nThat's really great! In terms of places it is still the 3 from which\nyou/sendhil had received an email (Booth, Sloan and London Business School).\n"
p19
sS'msg_reply_to_id_mime'
p20
S'<SN4PR0701MB36487A64C3E3A9C56407D6DEE52F0@SN4PR0701MB3648.namprd07.prod.outlook.com>'
p21
sS'msg_label'
p22
(lp23
VIMPORTANT
p24
aVSENT
p25
asS'msg_cc'
p26
NsS'msg_bcc'
p27
Ns.