(dp1
S'msg_subject'
p2
S'NYTimes: Can an Algorithm Tell When Kids Are in Danger?'
p3
sS'msg_from'
p4
S'Clara Marquardt <marquardt.clara@gmail.com>'
p5
sS'msg_to'
p6
S'Clara Marquardt <marquardt.clara@gmail.com>'
p7
sS'msg_inbox_outbox'
p8
S'outbox'
p9
sS'msg_id'
p10
V160baac2613a05c9
p11
sS'msg_threadid'
p12
V160baac2613a05c9
p13
sS'msg_date'
p14
S'Wed, 3 Jan 2018 00:18:52 -0600'
p15
sS'msg_id_mime'
p16
S'<CAC77MjLGSzE7oWkdDx8xh11W69UFGS6dzbYjXk+YY7qDm1Gocg@mail.gmail.com>'
p17
sS'msg_text'
p18
S'Can an Algorithm Tell When Kids Are in Danger? https://nyti.ms/2DOo2Xc\n'
p19
sS'msg_reply_to_id_mime'
p20
Fnan
sS'msg_label'
p21
(lp22
VIMPORTANT
p23
aVSTARRED
p24
aVSENT
p25
aVINBOX
p26
asS'msg_cc'
p27
NsS'msg_bcc'
p28
Ns.