(dp1
S'msg_subject'
p2
S'Re: Cron <sx541@rgs05>\n /data/zolab/edw/edw_exploration/code/project/git_backup.sh'
p3
sS'msg_from'
p4
S'Clara Marquardt <marquardt.clara@gmail.com>'
p5
sS'msg_to'
p6
S'"Lakhtakia, Shreyas" <slakhtakia@bwh.harvard.edu>'
p7
sS'msg_inbox_outbox'
p8
S'outbox'
p9
sS'msg_id'
p10
V160bf1c16efdcefd
p11
sS'msg_threadid'
p12
V160bc34aac7ba476
p13
sS'msg_date'
p14
S'Wed, 3 Jan 2018 20:59:34 -0600'
p15
sS'msg_id_mime'
p16
S'<82F1A4A4-F085-4C44-AF1B-0EDD14457552@gmail.com>'
p17
sS'msg_text'
p18
S'don\xe2\x80\x99t think anyone cares - just leave it : )\r'
p19
sS'msg_reply_to_id_mime'
p20
S'<BN6PR04MB11556240CC8FAE5E0DC99913821E0@BN6PR04MB1155.namprd04.prod.outlook.com>'
p21
sS'msg_label'
p22
(lp23
VIMPORTANT
p24
aVSENT
p25
asS'msg_cc'
p26
NsS'msg_bcc'
p27
Ns.