(dp1
S'msg_subject'
p2
S'Re: Clara Reference'
p3
sS'msg_from'
p4
S'Clara Marquardt <marquardt.clara@gmail.com>'
p5
sS'msg_to'
p6
S'"Obermeyer, Ziad,M.D.,M.Phil." <ZOBERMEYER@bwh.harvard.edu>'
p7
sS'msg_inbox_outbox'
p8
S'outbox'
p9
sS'msg_id'
p10
V15fb68def4e5d930
p11
sS'msg_threadid'
p12
V15f49f80cd91066d
p13
sS'msg_date'
p14
S'Mon, 13 Nov 2017 12:04:34 -0600'
p15
sS'msg_id_mime'
p16
S'<51684A64-8B23-47A2-87A1-61BB36946598@gmail.com>'
p17
sS'msg_text'
p18
S'Hi Ziad, \nGreat to run into you at the Crime Lab!\nAs it turns out I had gotten myself confused with the reference requirements - the number of references I need as well as who each reference needs to come from. All 3 schools require a reference from my current supervisor (Sendhil) with the second reference preferably coming from someone other than a supervisor. Long story short - it looks like this is one reference letter less for you to write  : ) \nMany, many thanks again for offering to support my application!\nSpending the day pulling Cowbell results from last week together, \nClara\n'
p19
sS'msg_reply_to_id_mime'
p20
S'<98BA1AE3-767B-4111-BD35-1AF8205EE202@bwh.harvard.edu>'
p21
sS'msg_label'
p22
(lp23
VSENT
p24
asS'msg_cc'
p25
NsS'msg_bcc'
p26
Ns.