(dp1
S'msg_subject'
p2
S"Re: Join Sendhil's research lab"
p3
sS'msg_from'
p4
S'Clara Marquardt <marquardt.clara@gmail.com>'
p5
sS'msg_to'
p6
S'"Unverzagt, Eric" <eunverz@fas.harvard.edu>'
p7
sS'msg_inbox_outbox'
p8
S'outbox'
p9
sS'msg_id'
p10
V1617150d88ce51ed
p11
sS'msg_threadid'
p12
V16170d04873f544b
p13
sS'msg_date'
p14
S'Wed, 7 Feb 2018 11:29:36 -0600'
p15
sS'msg_id_mime'
p16
S'<B697E814-EE77-4018-9A27-571DC3AE1F0E@gmail.com>'
p17
sS'msg_text'
p18
S'Will try to put them in touch with someone else on the team. \nClara\n'
p19
sS'msg_reply_to_id_mime'
p20
S'<SN2PR07MB2494A833504483D14C59158EE5FC0@SN2PR07MB2494.namprd07.prod.outlook.com>'
p21
sS'msg_label'
p22
(lp23
VSENT
p24
asS'msg_cc'
p25
NsS'msg_bcc'
p26
Ns.