(dp1
S'msg_subject'
p2
S'Re:'
p3
sS'msg_from'
p4
S'Clara Marquardt <marquardt.clara@gmail.com>'
p5
sS'msg_to'
p6
S'alf zips <alfzips@gmail.com>'
p7
sS'msg_inbox_outbox'
p8
S'outbox'
p9
sS'msg_id'
p10
V15ffea950a8632b9
p11
sS'msg_threadid'
p12
V15ff00bd33867a90
p13
sS'msg_date'
p14
S'Mon, 27 Nov 2017 19:07:08 +0100'
p15
sS'msg_id_mime'
p16
S'<9240C1D6-17AC-4E75-99EB-FA96E8ED7556@gmail.com>'
p17
sS'msg_text'
p18
S'Jetzt will Stefan wanner dein freund auf linked in werden\r'
p19
sS'msg_reply_to_id_mime'
p20
S'<11B2AB78-4C85-4514-B7A9-AFE51E071E3A@gmail.com>'
p21
sS'msg_label'
p22
(lp23
VIMPORTANT
p24
aVSENT
p25
asS'msg_cc'
p26
NsS'msg_bcc'
p27
Ns.