(dp1
S'msg_subject'
p2
S'Re: Recommendation received'
p3
sS'msg_from'
p4
S'Clara Marquardt <marquardt.clara@gmail.com>'
p5
sS'msg_to'
p6
S'Narinder Singh <i@narinder.com>'
p7
sS'msg_inbox_outbox'
p8
S'outbox'
p9
sS'msg_id'
p10
V160af2198a2bbf84
p11
sS'msg_threadid'
p12
V160af02ccd192108
p13
sS'msg_date'
p14
S'Sun, 31 Dec 2017 18:31:39 -0600'
p15
sS'msg_id_mime'
p16
S'<A8C7D3C2-D34F-4F53-B27D-22E9D225CF8A@gmail.com>'
p17
sS'msg_text'
p18
S'Amazing! Thank you so much! Will keep you posted once I start hearing back. \nHave a great start into 2018 : )\n'
p19
sS'msg_reply_to_id_mime'
p20
S'<672814e5-ac66-4952-8759-28cdd2270689@technolutions.net>'
p21
sS'msg_label'
p22
(lp23
VSENT
p24
asS'msg_cc'
p25
NsS'msg_bcc'
p26
Ns.