(dp1
S'msg_subject'
p2
S'Re:'
p3
sS'msg_from'
p4
S'Clara Marquardt <marquardt.clara@gmail.com>'
p5
sS'msg_to'
p6
S'alf zips <alfzips@gmail.com>'
p7
sS'msg_inbox_outbox'
p8
S'outbox'
p9
sS'msg_id'
p10
V15ffe0f0134badcc
p11
sS'msg_threadid'
p12
V15ff00bd33867a90
p13
sS'msg_date'
p14
S'Mon, 27 Nov 2017 16:18:35 +0100'
p15
sS'msg_id_mime'
p16
S'<DD4843BC-C771-4509-9B7D-8BDAD72D2B27@gmail.com>'
p17
sS'msg_text'
p18
S'Verpasster Anruf von Daniel Kneubuehl \xe2\x80\x94 du hast schon lustige Kollegen\n'
p19
sS'msg_reply_to_id_mime'
p20
S'<CAF34eQGAjM5D=zzZTb4ypXbyfrh-z7hfnt84B8OiFk=dAHL_Lg@mail.gmail.com>'
p21
sS'msg_label'
p22
(lp23
VIMPORTANT
p24
aVSENT
p25
asS'msg_cc'
p26
NsS'msg_bcc'
p27
Ns.