(dp1
S'msg_subject'
p2
S''
sS'msg_from'
p3
S'Clara Marquardt <marquardt.clara@gmail.com>'
p4
sS'msg_to'
p5
S'Ulla Marquardt <ulla.marquardt@yahoo.de>'
p6
sS'msg_inbox_outbox'
p7
S'outbox'
p8
sS'msg_id'
p9
V160688e0e3a73b64
p10
sS'msg_threadid'
p11
V160688e0e3a73b64
p12
sS'msg_date'
p13
S'Mon, 18 Dec 2017 01:37:07 -0600'
p14
sS'msg_id_mime'
p15
S'<973F94A3-E59A-4771-96DF-793F9384FE05@gmail.com>'
p16
sS'msg_text'
p17
S'\n555 woerter\nwhere wie immer hilfreich zu h\xc3\xb6ren was du meinst. Der letzte Paragraph (in grau) krieg ich irgendwie nicht hin. Habe es jetzt erstmal gelassen. \nArbeite morgen an  booth (nehme mir morgen frei)'
p18
sS'msg_reply_to_id_mime'
p19
Fnan
sS'msg_label'
p20
(lp21
VIMPORTANT
p22
aVSENT
p23
asS'msg_cc'
p24
NsS'msg_bcc'
p25
Ns.