(dp1
S'msg_subject'
p2
S''
sS'msg_from'
p3
S'Clara Marquardt <marquardt.clara@gmail.com>'
p4
sS'msg_to'
p5
S'alf zips <alfzips@gmail.com>'
p6
sS'msg_inbox_outbox'
p7
S'outbox'
p8
sS'msg_id'
p9
V1601838c28103197
p10
sS'msg_threadid'
p11
V1601838c28103197
p12
sS'msg_date'
p13
S'Sat, 2 Dec 2017 11:14:16 -0600'
p14
sS'msg_id_mime'
p15
S'<F11A7698-839C-4CA6-B1E0-3F5FA2FBB5BD@gmail.com>'
p16
sS'msg_text'
p17
S'hier der jetzige erste stand von mit und booth'
p18
sS'msg_reply_to_id_mime'
p19
Fnan
sS'msg_label'
p20
(lp21
VIMPORTANT
p22
aVSENT
p23
asS'msg_cc'
p24
NsS'msg_bcc'
p25
Ns.