(dp1
S'msg_subject'
p2
S'MBA Update'
p3
sS'msg_from'
p4
S'Clara Marquardt <marquardt.clara@gmail.com>'
p5
sS'msg_to'
p6
S'"marquardt.clara@gmail.com" <marquardt.clara@gmail.com>'
p7
sS'msg_inbox_outbox'
p8
S'outbox'
p9
sS'msg_id'
p10
V1615391d1e76b657
p11
sS'msg_threadid'
p12
V1615391d1e76b657
p13
sS'msg_date'
p14
S'Thu, 1 Feb 2018 16:51:08 -0600'
p15
sS'msg_id_mime'
p16
S'<5a739a10.a20c6b0a.11dc1.22ad@mx.google.com>'
p17
sS'msg_text'
p18
S"Hi, \nJust wanted to send you a quick heads-up and, most importantly, some positive updates. I just heard back from LBS \xe2\x80\x93 another interview invite a week after I heard back from Booth (Sloan gets back to applicants at the end of the month)! A huge thank you again for your references and support which helped me get this far!\nLBS has informed all applicants that they will be doing 'reference checks' next week \xe2\x80\x93 from what I gather this means that you will receive an email or phone call to verify that you did indeed write the reference. Hopefully it should be quick either way.\nMany thanks again, \nClara\n"
p19
sS'msg_reply_to_id_mime'
p20
Fnan
sS'msg_label'
p21
(lp22
VIMPORTANT
p23
aVSENT
p24
aVINBOX
p25
asS'msg_cc'
p26
NsS'msg_bcc'
p27
Ns.