(dp1
S'msg_subject'
p2
S'RE: Re:'
p3
sS'msg_from'
p4
S'Clara Marquardt <marquardt.clara@gmail.com>'
p5
sS'msg_to'
p6
S'alf zips <alfzips@gmail.com>'
p7
sS'msg_inbox_outbox'
p8
S'outbox'
p9
sS'msg_id'
p10
V16023890550a5619
p11
sS'msg_threadid'
p12
V160223e8e11df07a
p13
sS'msg_date'
p14
S'Mon, 4 Dec 2017 15:56:14 -0600'
p15
sS'msg_id_mime'
p16
S'<5a25c4de.8c4a240a.80c2.a51c@mx.google.com>'
p17
sS'msg_text'
p18
S'Muss nun heute was dringend fuer jens Machen : ( wie sihet es mit mit morgen abend aus? Da kann ich dann einfach frueher aus dem buero gehen und dich dann anrufen : )\nSent from Mail for Windows 10\n'
p19
sS'msg_reply_to_id_mime'
p20
S' <CAF34eQGRtL=QuxWcjCT=zN10VHomCLNyRM2u1FzC46XJRtaSwg@mail.gmail.com>'
p21
sS'msg_label'
p22
(lp23
VIMPORTANT
p24
aVSENT
p25
asS'msg_cc'
p26
NsS'msg_bcc'
p27
Ns.