(dp1
S'msg_subject'
p2
S'Re: Data Scientist opportunity with Boston-based startup aiming to\n make driving safer through data!!!'
p3
sS'msg_from'
p4
S'Clara Marquardt <marquardt.clara@gmail.com>'
p5
sS'msg_to'
p6
S'Shreyas Lakhtakia <shreyaslakhtakia@gmail.com>'
p7
sS'msg_inbox_outbox'
p8
S'outbox'
p9
sS'msg_id'
p10
V15fffb309af48f27
p11
sS'msg_threadid'
p12
V15f77df3580bec55
p13
sS'msg_date'
p14
S'Mon, 27 Nov 2017 23:57:19 +0100'
p15
sS'msg_id_mime'
p16
S'<E0377872-61C1-4BBA-9671-BC24BA38DDBB@gmail.com>'
p17
sS'msg_text'
p18
S'Of course I did not : ( I am really bad at this\r'
p19
sS'msg_reply_to_id_mime'
p20
S'<CALEjPT8q=TNMBw-tZhU4JfwFCV5AmYYVRUA=xAB=D1mehSgPKA@mail.gmail.com>'
p21
sS'msg_label'
p22
(lp23
VIMPORTANT
p24
aVSENT
p25
asS'msg_cc'
p26
NsS'msg_bcc'
p27
Ns.