(dp1
S'msg_subject'
p2
S'Re:'
p3
sS'msg_from'
p4
S'Clara Marquardt <marquardt.clara@gmail.com>'
p5
sS'msg_to'
p6
S'alf zips <alfzips@gmail.com>'
p7
sS'msg_inbox_outbox'
p8
S'outbox'
p9
sS'msg_id'
p10
V15fe4d6e40512313
p11
sS'msg_threadid'
p12
V15fdc103786f1f80
p13
sS'msg_date'
p14
S'Wed, 22 Nov 2017 11:46:48 -0600'
p15
sS'msg_id_mime'
p16
S'<BE713991-BFC8-4AFB-ACD1-E25C1B21F84D@gmail.com>'
p17
sS'msg_text'
p18
S'hast du den Artikel gelesen?\r'
p19
sS'msg_reply_to_id_mime'
p20
S'<CAF34eQErxWBPRzsRBwxDWFEzGiXDVP2uYb7GWs0iuvauxoLpQA@mail.gmail.com>'
p21
sS'msg_label'
p22
(lp23
VIMPORTANT
p24
aVSENT
p25
asS'msg_cc'
p26
NsS'msg_bcc'
p27
Ns.