(dp1
S'msg_subject'
p2
S'RE: Two quick questions (not sure if you check Slack). Thank you!'
p3
sS'msg_from'
p4
S'Clara Marquardt <marquardt.clara@gmail.com>'
p5
sS'msg_to'
p6
S'Sendhil Mullainathan <sendhil.mullainathan@gmail.com>'
p7
sS'msg_inbox_outbox'
p8
S'outbox'
p9
sS'msg_id'
p10
V1612ed527d94888b
p11
sS'msg_threadid'
p12
V1612ec732b08342f
p13
sS'msg_date'
p14
S'Thu, 25 Jan 2018 13:38:39 -0600'
p15
sS'msg_id_mime'
p16
S'<5a6a3278.917f240a.be217.866c@mx.google.com>'
p17
sS'msg_text'
p18
S'Haha yes \xe2\x80\x93 glad you are back! \nHad started wondering if the \xe2\x80\x98plan\xe2\x80\x99 that you mentioned months ago and were going to reveal in December was you disappearing to Australia never to be heard off again ; )\n'
p19
sS'msg_reply_to_id_mime'
p20
S' <CAPUhpVPYpc1y+ybEq9Xw=q9XN26_N-1ccLGohLbLzniNPWpj-w@mail.gmail.com>'
p21
sS'msg_label'
p22
(lp23
VIMPORTANT
p24
aVSENT
p25
asS'msg_cc'
p26
NsS'msg_bcc'
p27
Ns.