(dp1
S'msg_subject'
p2
S''
sS'msg_from'
p3
S'Clara Marquardt <marquardt.clara@gmail.com>'
p4
sS'msg_to'
p5
S'alf zips <alfzips@gmail.com>'
p6
sS'msg_inbox_outbox'
p7
S'outbox'
p8
sS'msg_id'
p9
V160613e8f9650d04
p10
sS'msg_threadid'
p11
V160613e8f9650d04
p12
sS'msg_date'
p13
S'Sat, 16 Dec 2017 15:32:56 -0600'
p14
sS'msg_id_mime'
p15
S'<63B6F5BF-5CDF-4591-8A26-F0204D75B173@gmail.com>'
p16
sS'msg_text'
p17
S'Lieber herkules, \nfalls du noch wach bist. Hier ein sehr schlecht geschriebenes draft. W\xc3\xa4re hilfreich zu h\xc3\xb6ren was du insgesamt meinst.\n'
p18
sS'msg_reply_to_id_mime'
p19
Fnan
sS'msg_label'
p20
(lp21
VIMPORTANT
p22
aVSENT
p23
asS'msg_cc'
p24
NsS'msg_bcc'
p25
Ns.