(dp1
S'msg_subject'
p2
S''
sS'msg_from'
p3
S'Clara Marquardt <marquardt.clara@gmail.com>'
p4
sS'msg_to'
p5
S'Ulla Marquardt <ulla.marquardt@yahoo.de>,\r\n alf zips <alfzips@gmail.com>'
p6
sS'msg_inbox_outbox'
p7
S'outbox'
p8
sS'msg_id'
p9
V160879ca32825699
p10
sS'msg_threadid'
p11
V160879ca32825699
p12
sS'msg_date'
p13
S'Sun, 24 Dec 2017 02:21:13 -0600'
p14
sS'msg_id_mime'
p15
S'<D2AE0DA8-7B75-4E29-B1FC-6B66EF999AAB@gmail.com>'
p16
sS'msg_text'
p17
S'Neuer booth essay - erster paragraph muss noch richtig geschrieben werden (und kuerzer werden) aber mir f\xc3\xa4llt heute nichts mehr ein.'
p18
sS'msg_reply_to_id_mime'
p19
Fnan
sS'msg_label'
p20
(lp21
VIMPORTANT
p22
aVSENT
p23
asS'msg_cc'
p24
NsS'msg_bcc'
p25
Ns.