(dp1
S'msg_subject'
p2
S'RE: Two quick questions (not sure if you check Slack). Thank you!'
p3
sS'msg_from'
p4
S'Clara Marquardt <marquardt.clara@gmail.com>'
p5
sS'msg_to'
p6
S'Sendhil Mullainathan <sendhil.mullainathan@gmail.com>'
p7
sS'msg_inbox_outbox'
p8
S'outbox'
p9
sS'msg_id'
p10
V1616998474db8ade
p11
sS'msg_threadid'
p12
V1612ec732b08342f
p13
sS'msg_date'
p14
S'Mon, 5 Feb 2018 21:10:35 -0600'
p15
sS'msg_id_mime'
p16
S'<5a793d82.d52f240a.8768d.5e65@mx.google.com>'
p17
sS'msg_text'
p18
S'Hi, \nJust wanted to check if you had a time in mind when you mentioned you wanted to get caught up soon.\nOn my end, it might be helpful to think through timing. These applications keep yielding surprises, so I have to rethink the time plan for KnowingMe work. \nNothing urgent \xe2\x80\x93 just wanted to get a sense of if/when you are planning to call. \nMany thanks, \nClara\n'
p19
sS'msg_reply_to_id_mime'
p20
S'<5a6a3278.917f240a.be217.866c@mx.google.com>'
p21
sS'msg_label'
p22
(lp23
VIMPORTANT
p24
aVSENT
p25
asS'msg_cc'
p26
NsS'msg_bcc'
p27
Ns.