(dp1
S'msg_subject'
p2
S'RE: Reference for Clara'
p3
sS'msg_from'
p4
S'Clara Marquardt <marquardt.clara@gmail.com>'
p5
sS'msg_to'
p6
S'"Unverzagt, Eric" <eunverz@fas.harvard.edu>'
p7
sS'msg_inbox_outbox'
p8
S'outbox'
p9
sS'msg_id'
p10
V1600a1ec2f0c5885
p11
sS'msg_threadid'
p12
V15f895b93c873348
p13
sS'msg_date'
p14
S'Thu, 30 Nov 2017 00:31:16 +0100'
p15
sS'msg_id_mime'
p16
S'<CAC77Mj+CZ=XR1_C6WYw7hdRdVLCqC2xkpbnyj2CMxdvoz+7a0g@mail.gmail.com>'
p17
sS'msg_text'
p18
S'Fantastic! I have received from confirmations from all 3 universities. Many\nthanks for all your help!\nI hope you had a great thanksgiving!\nClara\n'
p19
sS'msg_reply_to_id_mime'
p20
S'<SN4PR0701MB3648D61528DBD3F7A9073A01E53B0@SN4PR0701MB3648.namprd07.prod.outlook.com>'
p21
sS'msg_label'
p22
(lp23
VSENT
p24
asS'msg_cc'
p25
NsS'msg_bcc'
p26
Ns.