(dp1
S'msg_subject'
p2
S'Chatting about Sloan'
p3
sS'msg_from'
p4
S'Clara Marquardt <marquardt.clara@gmail.com>'
p5
sS'msg_to'
p6
S'lyortizluis@gmail.com'
p7
sS'msg_inbox_outbox'
p8
S'outbox'
p9
sS'msg_id'
p10
V160de66ec293d480
p11
sS'msg_threadid'
p12
V160de66ec293d480
p13
sS'msg_date'
p14
S'Tue, 9 Jan 2018 22:49:34 -0600'
p15
sS'msg_id_mime'
p16
S'<D7A85580-9397-42C6-88F1-F97D9BF606D0@gmail.com>'
p17
sS'msg_text'
p18
S'Hi Lara, \nMost days after the 13th would work! Any time on the 18th, 19th, 20th or 21st (Thursday - Sunday) would be ideal (I am in Chicago so just one hour behind Boston time). \nOtherwise, the week after that starting the 22nd would also work. \nLet me know what date/time would be best for you. Looking forward to speaking soon!\nHave a good trip back, \nClara'
p19
sS'msg_reply_to_id_mime'
p20
Fnan
sS'msg_label'
p21
(lp22
VIMPORTANT
p23
aVSENT
p24
asS'msg_cc'
p25
NsS'msg_bcc'
p26
Ns.