(dp1
S'msg_subject'
p2
S''
sS'msg_from'
p3
S'Clara Marquardt <marquardt.clara@gmail.com>'
p4
sS'msg_to'
p5
S'alf zips <alfzips@gmail.com>'
p6
sS'msg_inbox_outbox'
p7
S'outbox'
p8
sS'msg_id'
p9
V160df57e22ea9f19
p10
sS'msg_threadid'
p11
V160df57e22ea9f19
p12
sS'msg_date'
p13
S'Wed, 10 Jan 2018 03:12:44 -0600'
p14
sS'msg_id_mime'
p15
S'<C4B62314-0169-4908-8041-29D9AF0351A7@gmail.com>'
p16
sS'msg_text'
p17
S'Hier ein leicht simplifizierte version (bullet points muessen nat\xc3\xbcrlich ganze S\xc3\xa4tze werden). Ich glaube der Inhalt ist da aber bin mir nicht sicher mit der Struktur (und es muss noch k\xc3\xbcrzer werden('
p18
sS'msg_reply_to_id_mime'
p19
Fnan
sS'msg_label'
p20
(lp21
VSENT
p22
asS'msg_cc'
p23
NsS'msg_bcc'
p24
Ns.