(dp1
S'msg_subject'
p2
S'Re:'
p3
sS'msg_from'
p4
S'Clara Marquardt <marquardt.clara@gmail.com>'
p5
sS'msg_to'
p6
S'alf zips <alfzips@gmail.com>'
p7
sS'msg_inbox_outbox'
p8
S'outbox'
p9
sS'msg_id'
p10
V161106f6dca772ba
p11
sS'msg_threadid'
p12
V160fe08b93de5149
p13
sS'msg_date'
p14
S'Fri, 19 Jan 2018 15:59:52 -0600'
p15
sS'msg_id_mime'
p16
S'<02124C2D-4B01-4874-82D4-8D15159573F2@gmail.com>'
p17
sS'msg_text'
p18
S'du wirst im alter noch Komiker ; )\r'
p19
sS'msg_reply_to_id_mime'
p20
S'<CAF34eQGtjGt0WkE-sfgG91329OJLhGfi=MwBPEv0Kyys3fLytA@mail.gmail.com>'
p21
sS'msg_label'
p22
(lp23
VIMPORTANT
p24
aVSENT
p25
asS'msg_cc'
p26
NsS'msg_bcc'
p27
Ns.