(dp1
S'msg_subject'
p2
S'Re: WOW air Request'
p3
sS'msg_from'
p4
S'Clara Marquardt <marquardt.clara@gmail.com>'
p5
sS'msg_to'
p6
S'WOW air <wowair@wowair.com>'
p7
sS'msg_inbox_outbox'
p8
S'outbox'
p9
sS'msg_id'
p10
V15fcb8d311efc973
p11
sS'msg_threadid'
p12
V15fcb8b27810cac6
p13
sS'msg_date'
p14
S'Fri, 17 Nov 2017 13:55:47 -0600'
p15
sS'msg_id_mime'
p16
S'<29AAF104-78D8-4B0D-92A2-2D6C3D459A93@gmail.com>'
p17
sS'msg_text'
p18
S'Hi,\nMany thanks for following up on this. I in fact selected the option of a full refund for this leg of the journey when completing the form (I would like to keep the return journey). Please let me know if you need any other information to process the refund. \nKind Regards,\nClara Marquardt\n'
p19
sS'msg_reply_to_id_mime'
p20
S'<178RYY0OVM_5a0f3e3eaf450_d8fe3fa34eccb9984636c6_sprut@zendesk.com>'
p21
sS'msg_label'
p22
(lp23
VSENT
p24
asS'msg_cc'
p25
NsS'msg_bcc'
p26
Ns.