(dp1
S'msg_subject'
p2
S'Meeting tomorrow'
p3
sS'msg_from'
p4
S'Clara Marquardt <marquardt.clara@gmail.com>'
p5
sS'msg_to'
p6
S'Catherine Schwarz <cschwarz@uchicago.edu>'
p7
sS'msg_inbox_outbox'
p8
S'outbox'
p9
sS'msg_id'
p10
V161075d23ae17b4a
p11
sS'msg_threadid'
p12
V1610751c42c1d6f8
p13
sS'msg_date'
p14
S'Wed, 17 Jan 2018 21:43:17 -0600'
p15
sS'msg_id_mime'
p16
S'<152CA258-2539-4D6D-9836-8B2A15206923@gmail.com>'
p17
sS'msg_text'
p18
S'Hi Catherine,\nRealized too late that I should have mentioned this in the office today. I will be taking my final two days of vacation this month tomorrow and on Friday (to finish these grad school applications). I don\xe2\x80\x99t have anything urgent to discuss - depending on what you think makes most sense we could just stick to our normal meeting schedule and meet in 2 weeks. Otherwise, I could also call in for our meeting tomorrow.\nThe CPS project has been really fun over the past few weeks - thank you again for helping me get set-up with this project!\nMany thanks, \nClara\n'
p19
sS'msg_reply_to_id_mime'
p20
S'<0bcdded9dcb745dbbb97c993c74d4555@BN3PR1101MB1185.namprd11.prod.outlook.com>'
p21
sS'msg_label'
p22
(lp23
VSENT
p24
asS'msg_cc'
p25
NsS'msg_bcc'
p26
Ns.