(dp1
S'msg_subject'
p2
S'Re: Clara Marquardt paid you $37.00 on Venmo'
p3
sS'msg_from'
p4
S'Clara Marquardt <marquardt.clara@gmail.com>'
p5
sS'msg_to'
p6
S'Shreyas Lakhtakia <shreyaslakhtakia@gmail.com>'
p7
sS'msg_inbox_outbox'
p8
S'outbox'
p9
sS'msg_id'
p10
V1615cced29ca449f
p11
sS'msg_threadid'
p12
V160c43f6689f6e52
p13
sS'msg_date'
p14
S'Sat, 3 Feb 2018 11:55:13 -0600'
p15
sS'msg_id_mime'
p16
S'<CAC77MjK0bdpZLUcuV_1r3M77nVwa99T5Mn1_deezTSDszdbyAQ@mail.gmail.com>'
p17
sS'msg_text'
p18
S"Yes! Last week venmo cancelled the transaction \xf0\x9f\x98\x8a\nYou don't owe me anything \xf0\x9f\x98\x9a\nNot sure if you saw but is paid you back the 5$ for the beer tour a few\ndays ago. I am sure I owe you more for ubers, etc. Let me know if you have\na guess of how much.\nSending you lots of kisses,\nClara\n"
p19
sS'msg_reply_to_id_mime'
p20
S'<CALEjPT_upNd9sbb3LRLD-8xGXqgjmDZ95BfhfFDS5DDThcLyrg@mail.gmail.com>'
p21
sS'msg_label'
p22
(lp23
VIMPORTANT
p24
aVSENT
p25
asS'msg_cc'
p26
NsS'msg_bcc'
p27
Ns.