(dp1
S'msg_subject'
p2
S"Re: secondGO: let's celebrate!"
p3
sS'msg_from'
p4
S'Clara Marquardt <marquardt.clara@gmail.com>'
p5
sS'msg_to'
p6
S'Sara Serradas Duarte <sserradasduarte@gmail.com>'
p7
sS'msg_inbox_outbox'
p8
S'outbox'
p9
sS'msg_id'
p10
V15fa9dfd1d80a7ac
p11
sS'msg_threadid'
p12
V1494be56cb18294a
p13
sS'msg_date'
p14
S'Sat, 11 Nov 2017 00:58:56 -0600'
p15
sS'msg_id_mime'
p16
S'<EEF61F53-BCD7-44C2-ACB2-8D5F65086EED@gmail.com>'
p17
sS'msg_text'
p18
S': ) : ) The Global Challenges Initiative sounds super interesting and like something that will allow you to continue working on a lot of the themes that SecondGo revolved around!\nI have made a few unexpected turns since coming to the US - first spending a year founding and running a digital media startup then moving into the data science field (this is when I joined the Lab). My work is all to do with developing algorithms to help policy makers, doctors, city planners, police departments, \xe2\x80\xa6 make better decisions and thereby improve social outcomes. An area that is both super interesitng and (hopefully) very impactful : ) \nWill send you an email when I am next in Cambridge - would be great to grab coffee!\nClara\n'
p19
sS'msg_reply_to_id_mime'
p20
S'<CACO2ee4FxWgwFA0VFJ9zATm84757cs0wmGkuADoZN=xfWqVOWQ@mail.gmail.com>'
p21
sS'msg_label'
p22
(lp23
VSENT
p24
asS'msg_cc'
p25
NsS'msg_bcc'
p26
Ns.