(dp1
S'msg_subject'
p2
S'Re: [Confidential] Pie News'
p3
sS'msg_from'
p4
S'Clara Marquardt <marquardt.clara@gmail.com>'
p5
sS'msg_to'
p6
S'Ceci Mourkogiannis <ceci@pie.video>'
p7
sS'msg_inbox_outbox'
p8
S'outbox'
p9
sS'msg_id'
p10
V15ffce32465e068a
p11
sS'msg_threadid'
p12
V15ecaf4b5a3007b5
p13
sS'msg_date'
p14
S'Mon, 27 Nov 2017 10:51:00 +0100'
p15
sS'msg_id_mime'
p16
S'<75C4C63C-F0F2-4E7C-BFFF-F1247E6CD8F3@gmail.com>'
p17
sS'msg_text'
p18
S'Hi : )\nDetails below and W-8BEN attached. \nEmail: marquardt.clara@gmail.com <mailto:marquardt.clara@gmail.com>\nBank Details:\nBank Name: Bank of America\nAccount Number: 0046 6165 4846\nRouting Number: 026 009 593\nSWIFT Code (BIC): BOFAUS3N\n'
p19
sS'msg_reply_to_id_mime'
p20
S'<CAEuXx1PHsSPPY_LUv6LqvSqTtGQruj8QdEPSbYGKaaxzfZSRnA@mail.gmail.com>'
p21
sS'msg_label'
p22
(lp23
VIMPORTANT
p24
aVSENT
p25
asS'msg_cc'
p26
S'Jacob Trefethen <jacob@pie.video>,\r\n Gui@pie.video'
p27
sS'msg_bcc'
p28
Ns.