(dp1
S'msg_subject'
p2
S'Nearly finished (!)'
p3
sS'msg_from'
p4
S'Clara Marquardt <marquardt.clara@gmail.com>'
p5
sS'msg_to'
p6
S'Monica Bhatt <mbhatt@uchicago.edu>'
p7
sS'msg_inbox_outbox'
p8
S'outbox'
p9
sS'msg_id'
p10
V1605cca9f7f50cf0
p11
sS'msg_threadid'
p12
V1605cca9f7f50cf0
p13
sS'msg_date'
p14
S'Fri, 15 Dec 2017 18:47:40 -0600'
p15
sS'msg_id_mime'
p16
S'<573B80B8-F223-4D6D-ABCD-51FCB2A6465B@gmail.com>'
p17
sS'msg_text'
p18
S'Hi Monica, \nAttached:\n- The powerpoint presentation\n- A PDF version of the presentation\n- A PDF with all the maps (in the order that they appear in the presentation)\nStill to do:\n- Insert the maps into the presentation (wanted to first make sure that the maps all look OK) [The maps currently in the presentation are placeholders]\n- Add a \xe2\x80\x9cDraft\xe2\x80\x9d watermark to the PDF \nI will be offline for 30 minutes then back online to make any final changes and copy the maps into the presentation.\nBest,\nClara\n'
p19
sS'msg_reply_to_id_mime'
p20
Fnan
sS'msg_label'
p21
(lp22
VSENT
p23
asS'msg_cc'
p24
S'Lydia Jessup <ljessup@uchicago.edu>'
p25
sS'msg_bcc'
p26
Ns.