(dp1
S'msg_subject'
p2
S'Re:'
p3
sS'msg_from'
p4
S'Clara Marquardt <marquardt.clara@gmail.com>'
p5
sS'msg_to'
p6
S'alfzips <alfzips@gmail.com>'
p7
sS'msg_inbox_outbox'
p8
S'outbox'
p9
sS'msg_id'
p10
V1611bffd0f04b779
p11
sS'msg_threadid'
p12
V1611b3e5a3bd27d6
p13
sS'msg_date'
p14
S'Sun, 21 Jan 2018 21:53:25 -0600'
p15
sS'msg_id_mime'
p16
S'<CAC77Mj+FDBMXVtx1eGoRMy7A1JeGGjm0N_xom5L8M=aDCTZWxQ@mail.gmail.com>'
p17
sS'msg_text'
p18
S'Danke herkules!! Werde mir Nummer notieren (i.e. meinem papierstapel\nhinzuf\xc3\xbcgen)\nH\xc3\xbchnchen ist gerade wieder in Chicago gelandet.\nAm Wochenende schnattern?\n'
p19
sS'msg_reply_to_id_mime'
p20
S'<CAF34eQETgQtAZF-X3=TMCaQ=oD6YQr_ZXh23yP44yjojDF97fw@mail.gmail.com>'
p21
sS'msg_label'
p22
(lp23
VIMPORTANT
p24
aVSENT
p25
asS'msg_cc'
p26
NsS'msg_bcc'
p27
Ns.