(dp1
S'msg_subject'
p2
S'Re: [Confidential] Pie News'
p3
sS'msg_from'
p4
S'Clara Marquardt <marquardt.clara@gmail.com>'
p5
sS'msg_to'
p6
S'Guillaume Sabran <sabranguillaume@gmail.com>'
p7
sS'msg_inbox_outbox'
p8
S'outbox'
p9
sS'msg_id'
p10
V1603f7ac44ff82e7
p11
sS'msg_threadid'
p12
V15ecaf4b5a3007b5
p13
sS'msg_date'
p14
S'Sun, 10 Dec 2017 02:11:36 -0600'
p15
sS'msg_id_mime'
p16
S'<23BCA0F5-09AE-4B96-8C60-E86A387113EB@gmail.com>'
p17
sS'msg_text'
p18
S'LOL ; ) I am planning to be happily unemployed by the end of March so that sounds like a great plan!\n'
p19
sS'msg_reply_to_id_mime'
p20
S'<BN6PR13MB10129AA1E12226541DB13D38FF360@BN6PR13MB1012.namprd13.prod.outlook.com>'
p21
sS'msg_label'
p22
(lp23
VIMPORTANT
p24
aVSENT
p25
asS'msg_cc'
p26
S'Guillaume Sabran <gui@pie.video>,\r\n Ceci Mourkogiannis <ceci@pie.video>,\r\n Jacob Trefethen <jacob@pie.video>'
p27
sS'msg_bcc'
p28
Ns.