(dp1
S'msg_subject'
p2
S''
sS'msg_from'
p3
S'Clara Marquardt <marquardt.clara@gmail.com>'
p4
sS'msg_to'
p5
S'alf zips <alfzips@gmail.com>'
p6
sS'msg_inbox_outbox'
p7
S'outbox'
p8
sS'msg_id'
p9
V1602ac5489ec2065
p10
sS'msg_threadid'
p11
V1602ac5489ec2065
p12
sS'msg_date'
p13
S'Wed, 6 Dec 2017 01:40:56 -0600'
p14
sS'msg_id_mime'
p15
S'<362F3BF3-59D9-447C-9717-AB338BB75850@gmail.com>'
p16
sS'msg_text'
p17
S'Hier die 2 Versionen - (1) alt - neuster stand der altern Struktur (2) draft einer neuen/alternativen Struktur (London essay angelehnt). Auch attached ein weiteres update des LBS essays. \nDein Huhn\n'
p18
sS'msg_reply_to_id_mime'
p19
Fnan
sS'msg_label'
p20
(lp21
VSENT
p22
asS'msg_cc'
p23
NsS'msg_bcc'
p24
Ns.