(dp1
S'msg_subject'
p2
S'=?UTF-8?Q?NYTimes=3A_Artificial_Intelligence=E2=80=99s_=E2=80=98Black_Box=E2=80=99?=\n\t=?UTF-8?Q?_Is_Nothing_to_Fear?='
p3
sS'msg_from'
p4
S'Clara Marquardt <marquardt.clara@gmail.com>'
p5
sS'msg_to'
p6
S'marquardt.clara@gmail.com'
p7
sS'msg_inbox_outbox'
p8
S'outbox'
p9
sS'msg_id'
p10
V1613328505b6b68e
p11
sS'msg_threadid'
p12
V1613328505b6b68e
p13
sS'msg_date'
p14
S'Fri, 26 Jan 2018 09:48:55 -0600'
p15
sS'msg_id_mime'
p16
S'<CAC77MjJ4asiiw3oO=wLKPPQ+MxU_rcEraAS7RBEvZ-v8CxtkBQ@mail.gmail.com>'
p17
sS'msg_text'
p18
S'Artificial Intelligence\xe2\x80\x99s \xe2\x80\x98Black Box\xe2\x80\x99 Is Nothing to Fear\nhttps://nyti.ms/2GieLsu\n'
p19
sS'msg_reply_to_id_mime'
p20
Fnan
sS'msg_label'
p21
(lp22
VIMPORTANT
p23
aVSENT
p24
aVINBOX
p25
asS'msg_cc'
p26
NsS'msg_bcc'
p27
Ns.