(dp1
S'msg_subject'
p2
S'Re: Final documents'
p3
sS'msg_from'
p4
S'Clara Marquardt <marquardt.clara@gmail.com>'
p5
sS'msg_to'
p6
S'Jacob Trefethen <jacob@pie.video>'
p7
sS'msg_inbox_outbox'
p8
S'outbox'
p9
sS'msg_id'
p10
V1601663ad581e064
p11
sS'msg_threadid'
p12
V1601438fa98f4761
p13
sS'msg_date'
p14
S'Sat, 2 Dec 2017 02:41:56 -0600'
p15
sS'msg_id_mime'
p16
S'<5C0EF857-0F14-478A-88F3-D047E235E291@gmail.com>'
p17
sS'msg_text'
p18
S'Hi, \nSigned the e-document. The letter of transmittal is attached : )\nClara\n'
p19
sS'msg_reply_to_id_mime'
p20
S'<5381309C-8C8F-42BF-859E-D8A759852C4B@pie.video>'
p21
sS'msg_label'
p22
(lp23
VIMPORTANT
p24
aVSENT
p25
asS'msg_cc'
p26
S'Ceci Mourkogiannis <ceci@pie.video>,\r\n Gui Sabran <gui@pie.video>'
p27
sS'msg_bcc'
p28
Ns.