(dp1
S'msg_subject'
p2
S'Re:'
p3
sS'msg_from'
p4
S'Clara Marquardt <marquardt.clara@gmail.com>'
p5
sS'msg_to'
p6
S'alf zips <alfzips@gmail.com>'
p7
sS'msg_inbox_outbox'
p8
S'outbox'
p9
sS'msg_id'
p10
V16116ce4e00e25a1
p11
sS'msg_threadid'
p12
V160fe08b93de5149
p13
sS'msg_date'
p14
S'Sat, 20 Jan 2018 21:41:13 -0600'
p15
sS'msg_id_mime'
p16
S'<3C9C1A17-CF7C-412A-8A32-FCACA6D0CBCC@gmail.com>'
p17
sS'msg_text'
p18
S'Danke herkules - morgen gehts ja schon wieder zur\xc3\xbcck. \nDein Huhn - freue mich schon auf H\xc3\xbchner post\n'
p19
sS'msg_reply_to_id_mime'
p20
S'<CAF34eQGJksOgKjXNZgAP60s5x_vV-_TLS1JKu99pn-p7y2VmLQ@mail.gmail.com>'
p21
sS'msg_label'
p22
(lp23
VSENT
p24
asS'msg_cc'
p25
NsS'msg_bcc'
p26
Ns.