(dp1
S'msg_subject'
p2
S'Re: Connecting you with Clara - gender bias app'
p3
sS'msg_from'
p4
S'Clara Marquardt <marquardt.clara@gmail.com>'
p5
sS'msg_to'
p6
S'Cameron Cohen <cameron_cohen@college.harvard.edu>'
p7
sS'msg_inbox_outbox'
p8
S'outbox'
p9
sS'msg_id'
p10
V15fdc050b378e950
p11
sS'msg_threadid'
p12
V15fd94f6ccdcbbd1
p13
sS'msg_date'
p14
S'Mon, 20 Nov 2017 18:40:37 -0600'
p15
sS'msg_id_mime'
p16
S'<0A0FF6D1-4F16-4B76-A3E4-699ABE61D2AF@gmail.com>'
p17
sS'msg_text'
p18
S'Bec, thanks for the intro!\nCameron, any time on Wednesday would work for me! How about 10am LA time on Wednesday? I could also do any other time between 9am and 4pm LA time. \nLooking forward to talking on Wednesday, \nClara\n'
p19
sS'msg_reply_to_id_mime'
p20
S'<1F2926A4-8332-49A6-BE09-251ACDC41384@college.harvard.edu>'
p21
sS'msg_label'
p22
(lp23
VIMPORTANT
p24
aVSENT
p25
asS'msg_cc'
p26
S'Bec Weeks <weeks.rebecca@gmail.com>'
p27
sS'msg_bcc'
p28
Ns.