(dp1
S'msg_subject'
p2
S''
sS'msg_from'
p3
S'Clara Marquardt <marquardt.clara@gmail.com>'
p4
sS'msg_to'
p5
S'"Lakhtakia, Shreyas" <slakhtakia@partners.org>'
p6
sS'msg_inbox_outbox'
p7
S'outbox'
p8
sS'msg_id'
p9
V161631a886347fef
p10
sS'msg_threadid'
p11
V161631a886347fef
p12
sS'msg_date'
p13
S'Sun, 4 Feb 2018 17:15:33 -0600'
p14
sS'msg_id_mime'
p15
S'<9E2B23EF-408F-42E5-B74D-56644B38117B@gmail.com>'
p16
sS'msg_text'
p17
S'(1) copy text into miscstat\n(2) run misc stat exec\n(3) debug & load back in \n(4) feb_2nd_addition folder - MiscStat.txt\n'
p18
sS'msg_reply_to_id_mime'
p19
Fnan
sS'msg_label'
p20
(lp21
VSENT
p22
asS'msg_cc'
p23
NsS'msg_bcc'
p24
Ns.