(dp1
S'msg_subject'
p2
S'Re: Troubleshooting for KnowingMe'
p3
sS'msg_from'
p4
S'Clara Marquardt <marquardt.clara@gmail.com>'
p5
sS'msg_to'
p6
S'Alex Blau <ablau@ideas42.org>'
p7
sS'msg_inbox_outbox'
p8
S'outbox'
p9
sS'msg_id'
p10
V16176bd2f7935cb9
p11
sS'msg_threadid'
p12
V161722c462552ea5
p13
sS'msg_date'
p14
S'Thu, 8 Feb 2018 12:46:03 -0600'
p15
sS'msg_id_mime'
p16
S'<D8D874B6-B62B-4B9A-A3BA-DF6E852E736C@gmail.com>'
p17
sS'msg_text'
p18
S'Hi Alex, \nI am actually in Chicago so not all that far away but only just saw your email (I did wake up a few hours ago\xe2\x80\xa6)\nAs it turns out I will, weather permitting, be on a plane to NYC this evening. Would there be any chance that you had some time tomorrow (before noon / after 4 pm (EST)) or early next week? \nMany thanks, \nClara\n'
p19
sS'msg_reply_to_id_mime'
p20
S'<CAMr8H-kYaSSWnaLD-KX5ULgj7z9STCWK=FtiLoTH++cVnessnA@mail.gmail.com>'
p21
sS'msg_label'
p22
(lp23
VIMPORTANT
p24
aVSENT
p25
asS'msg_cc'
p26
NsS'msg_bcc'
p27
Ns.