(dp1
S'msg_subject'
p2
S'Clara MBA Update'
p3
sS'msg_from'
p4
S'Clara Marquardt <marquardt.clara@gmail.com>'
p5
sS'msg_to'
p6
S'"Unverzagt, Eric" <eunverz@fas.harvard.edu>'
p7
sS'msg_inbox_outbox'
p8
S'outbox'
p9
sS'msg_id'
p10
V1615396d234a1b07
p11
sS'msg_threadid'
p12
V1615396d234a1b07
p13
sS'msg_date'
p14
S'Thu, 1 Feb 2018 16:56:36 -0600'
p15
sS'msg_id_mime'
p16
S'<5a739b58.557b240a.b2ea1.0ec8@mx.google.com>'
p17
sS'msg_text'
p18
S'Hi Eric, \nJust wanted to send you a quick note to say that one of the MBA programs I applied to (London Business School) may reach out to Sendhil next week to verify his reference. I have let Sendhil know in case they call, but wanted to let you know in case they send an email to your address (which we provided as Sendhil\xe2\x80\x99s contact address). \nThanks yet again for your help, \nClara\n'
p19
sS'msg_reply_to_id_mime'
p20
S'<5a739957.c219240a.2152b.0d37@mx.google.com>'
p21
sS'msg_label'
p22
(lp23
VIMPORTANT
p24
aVSENT
p25
asS'msg_cc'
p26
NsS'msg_bcc'
p27
Ns.