(dp1
S'msg_subject'
p2
S''
sS'msg_from'
p3
S'Clara Marquardt <marquardt.clara@gmail.com>'
p4
sS'msg_to'
p5
S'alf zips <alfzips@gmail.com>,\r\n Ulla Marquardt <ulla.marquardt@yahoo.de>'
p6
sS'msg_inbox_outbox'
p7
S'outbox'
p8
sS'msg_id'
p9
V160917cf0e04a9bb
p10
sS'msg_threadid'
p11
V160917cf0e04a9bb
p12
sS'msg_date'
p13
S'Tue, 26 Dec 2017 00:22:50 -0600'
p14
sS'msg_id_mime'
p15
S'<731CCC38-FC63-4B69-99D4-2B80498B66C2@gmail.com>'
p16
sS'msg_text'
p17
S'Neuer LBS essay\n'
p18
sS'msg_reply_to_id_mime'
p19
Fnan
sS'msg_label'
p20
(lp21
VSENT
p22
asS'msg_cc'
p23
NsS'msg_bcc'
p24
Ns.