(dp1
S'msg_subject'
p2
S'Re: MBA Reference'
p3
sS'msg_from'
p4
S'Clara Marquardt <marquardt.clara@gmail.com>'
p5
sS'msg_to'
p6
S'Narinder Singh <i@narinder.com>'
p7
sS'msg_inbox_outbox'
p8
S'outbox'
p9
sS'msg_id'
p10
V1606e27e2aa92a3e
p11
sS'msg_threadid'
p12
V15f93274142b8e2a
p13
sS'msg_date'
p14
S'Tue, 19 Dec 2017 03:43:14 -0600'
p15
sS'msg_id_mime'
p16
S'<B1E95DFB-A34C-4BFC-9429-4BC516B486F2@gmail.com>'
p17
sS'msg_text'
p18
S'Hi, \nJust wanted to check-in to see if there is absolutely anything I can send along/provide additional information on with regards to the reference. \nMany, many thanks again for your support on this! \nClara\n'
p19
sS'msg_reply_to_id_mime'
p20
S'<CAC77MjJ-9JydtadS9=8=mkLJog--h279Lcc2UqUbs3wkugn41w@mail.gmail.com>'
p21
sS'msg_label'
p22
(lp23
VIMPORTANT
p24
aVSENT
p25
asS'msg_cc'
p26
NsS'msg_bcc'
p27
Ns.