(dp1
S'msg_subject'
p2
S'Re: MBA Reference'
p3
sS'msg_from'
p4
S'Clara Marquardt <marquardt.clara@gmail.com>'
p5
sS'msg_to'
p6
S'Narinder Singh <i@narinder.com>'
p7
sS'msg_inbox_outbox'
p8
S'outbox'
p9
sS'msg_id'
p10
V160303263cf64b4b
p11
sS'msg_threadid'
p12
V15f93274142b8e2a
p13
sS'msg_date'
p14
S'Thu, 7 Dec 2017 02:58:16 -0600'
p15
sS'msg_id_mime'
p16
S'<19FF5BB9-8AC5-4B1E-AAEF-B0F5E5EEEBAB@gmail.com>'
p17
sS'msg_text'
p18
S'Hi, \nHope you had a great thanksgiving!\nI just wanted to send you a quick email to see if there is anything else I can send along with regards to my applications as I am making progress on my essays/personal statements. I am planning to have everything ready just in time for the deadlines in January so there is a lot of time left : ) but in the meantime - let me know if I can help in any way!\nBest wishes and many thanks again, \nClara\n'
p19
sS'msg_reply_to_id_mime'
p20
S'<DE2DB951-90B6-4C21-9419-E14FE3D467C7@gmail.com>'
p21
sS'msg_label'
p22
(lp23
VIMPORTANT
p24
aVSENT
p25
asS'msg_cc'
p26
NsS'msg_bcc'
p27
Ns.