(dp1
S'msg_subject'
p2
S'=?utf-8?Q?Re=3A_Yale_Club_Young_Members=E2=80=99_Presents_Casabla?=\n =?utf-8?Q?nca=3A_A_Black_=26_White_Ball?='
p3
sS'msg_from'
p4
S'Clara Marquardt <marquardt.clara@gmail.com>'
p5
sS'msg_to'
p6
S'Shreyas Lakhtakia <shreyaslakhtakia@gmail.com>'
p7
sS'msg_inbox_outbox'
p8
S'outbox'
p9
sS'msg_id'
p10
V1618ca2dcae77f74
p11
sS'msg_threadid'
p12
V1618ca16f61506c4
p13
sS'msg_date'
p14
S'Mon, 12 Feb 2018 18:48:57 -0600'
p15
sS'msg_id_mime'
p16
S'<52612187-0D29-407A-A8D0-BFAEA024121D@gmail.com>'
p17
sS'msg_text'
p18
S': ) : ) : ) What are we (I?) becoming?\nI have my interview in the morning that day : ( Maybe I could fly afterwards? This would be cool!\n'
p19
sS'msg_reply_to_id_mime'
p20
S'<CALEjPT_SF+-KgF-fYMUDgsJL6bHAcLLBPNvo+6Hnm0waPXpiTQ@mail.gmail.com>'
p21
sS'msg_label'
p22
(lp23
VIMPORTANT
p24
aVSENT
p25
asS'msg_cc'
p26
NsS'msg_bcc'
p27
Ns.