(dp1
S'msg_subject'
p2
S'Re: Troubleshooting for KnowingMe'
p3
sS'msg_from'
p4
S'Clara Marquardt <marquardt.clara@gmail.com>'
p5
sS'msg_to'
p6
S'Alex Blau <ablau@ideas42.org>'
p7
sS'msg_inbox_outbox'
p8
S'outbox'
p9
sS'msg_id'
p10
V1617adcad50ad27a
p11
sS'msg_threadid'
p12
V161722c462552ea5
p13
sS'msg_date'
p14
S'Fri, 9 Feb 2018 07:58:57 -0600'
p15
sS'msg_id_mime'
p16
S'<CAC77MjL8NRkPdxzr1imeFOGUZxdEEWn8pRYPLqU5anJu0xA1aw@mail.gmail.com>'
p17
sS'msg_text'
p18
S'Thank you! Looking forward to speaking soon.\nClara\n'
p19
sS'msg_reply_to_id_mime'
p20
S'<CAMr8H-mphNAmmmOEhLAjhxMk0COnJPZVSpAm8h0VkP5auNfNSg@mail.gmail.com>'
p21
sS'msg_label'
p22
(lp23
VSENT
p24
asS'msg_cc'
p25
NsS'msg_bcc'
p26
Ns.