(dp1
S'msg_subject'
p2
S'Re:'
p3
sS'msg_from'
p4
S'Clara Marquardt <marquardt.clara@gmail.com>'
p5
sS'msg_to'
p6
S'alf zips <alfzips@gmail.com>'
p7
sS'msg_inbox_outbox'
p8
S'outbox'
p9
sS'msg_id'
p10
V1606615200925e56
p11
sS'msg_threadid'
p12
V1606426d8faf94b8
p13
sS'msg_date'
p14
S'Sun, 17 Dec 2017 14:05:47 -0600'
p15
sS'msg_id_mime'
p16
S'<24DB9351-B80D-4A7D-9B03-6149E1680104@gmail.com>'
p17
sS'msg_text'
p18
S'Tausend H\xc3\xbchner k\xc3\xbcsse : ) : ) \r'
p19
sS'msg_reply_to_id_mime'
p20
S'<CAF34eQFv830b-s71V29+J4e7E9mNEGTp_zzN+49tuWK0piBKZA@mail.gmail.com>'
p21
sS'msg_label'
p22
(lp23
VIMPORTANT
p24
aVSENT
p25
asS'msg_cc'
p26
NsS'msg_bcc'
p27
Ns.