(dp1
S'msg_subject'
p2
S''
sS'msg_from'
p3
S'Clara Marquardt <marquardt.clara@gmail.com>'
p4
sS'msg_to'
p5
S'Ulla Marquardt <ulla.marquardt@yahoo.de>'
p6
sS'msg_inbox_outbox'
p7
S'outbox'
p8
sS'msg_id'
p9
V1607f8ef5e463977
p10
sS'msg_threadid'
p11
V1607f8ef5e463977
p12
sS'msg_date'
p13
S'Fri, 22 Dec 2017 12:49:16 -0600'
p14
sS'msg_id_mime'
p15
S'<1B7D5FDD-908B-439D-ABF0-0BB79FA5B87C@gmail.com>'
p16
sS'msg_text'
p17
S'auch nicht super aber vielleicht ok?'
p18
sS'msg_reply_to_id_mime'
p19
Fnan
sS'msg_label'
p20
(lp21
VIMPORTANT
p22
aVSENT
p23
asS'msg_cc'
p24
NsS'msg_bcc'
p25
Ns.