(dp1
S'msg_subject'
p2
S''
sS'msg_from'
p3
S'Clara Marquardt <marquardt.clara@gmail.com>'
p4
sS'msg_to'
p5
S'Clara Marquardt <marquardt.clara@gmail.com>'
p6
sS'msg_inbox_outbox'
p7
S'outbox'
p8
sS'msg_id'
p9
V15ffabe7367aa936
p10
sS'msg_threadid'
p11
V15ffabe7367aa936
p12
sS'msg_date'
p13
S'Mon, 27 Nov 2017 00:51:42 +0100'
p14
sS'msg_id_mime'
p15
S'<DC9013DB-13F8-45B3-ADBD-9EBBCAF18EA0@gmail.com>'
p16
sS'msg_text'
p17
S'http://www.urbaninnovationfund.com/#team <http://www.urbaninnovationfund.com/#team>'
p18
sS'msg_reply_to_id_mime'
p19
Fnan
sS'msg_label'
p20
(lp21
VIMPORTANT
p22
aVSENT
p23
aVINBOX
p24
asS'msg_cc'
p25
NsS'msg_bcc'
p26
Ns.