(dp1
S'msg_subject'
p2
S'Re: [Topcoder Connect] Development Phase Start!'
p3
sS'msg_from'
p4
S'Clara Marquardt <marquardt.clara@gmail.com>'
p5
sS'msg_to'
p6
S'Bec Weeks <weeks.rebecca@gmail.com>'
p7
sS'msg_inbox_outbox'
p8
S'outbox'
p9
sS'msg_id'
p10
V16190f3269682a27
p11
sS'msg_threadid'
p12
V1616debb30436f6b
p13
sS'msg_date'
p14
S'Tue, 13 Feb 2018 14:55:08 -0600'
p15
sS'msg_id_mime'
p16
S'<FAF3D0C8-3439-484D-AC3C-D3B229C9F62D@gmail.com>'
p17
sS'msg_text'
p18
S'Hi Bec, \nThis all makes less and less sense to me. At this point our best bet, I think, is just to say yes and urge them to send us whatever they come up with asap. At that point, we will have to assess what we are working with and how we can incorporate all or parts of it. \nIf you could ask them for an estimated completion date that would be very helpful. \nMany thanks for handling this, \nClara\n'
p19
sS'msg_reply_to_id_mime'
p20
S'<CAPp_zuoxkbdoot24SLo6ZsDQpa=NaZr7LFJs0DMti-j2ZHyExg@mail.gmail.com>'
p21
sS'msg_label'
p22
(lp23
VIMPORTANT
p24
aVSENT
p25
asS'msg_cc'
p26
NsS'msg_bcc'
p27
Ns.