(dp1
S'msg_subject'
p2
S'Re: Connecting you with Clara - gender bias app'
p3
sS'msg_from'
p4
S'Clara Marquardt <marquardt.clara@gmail.com>'
p5
sS'msg_to'
p6
S'Cameron Cohen <cameron_cohen@college.harvard.edu>'
p7
sS'msg_inbox_outbox'
p8
S'outbox'
p9
sS'msg_id'
p10
V15fe4e7f608446d2
p11
sS'msg_threadid'
p12
V15fd94f6ccdcbbd1
p13
sS'msg_date'
p14
S'Wed, 22 Nov 2017 12:05:10 -0600'
p15
sS'msg_id_mime'
p16
S'<38E778FC-20C3-4DF1-871C-9D89B98ED325@gmail.com>'
p17
sS'msg_text'
p18
S'Hi Cameron, \nA few links/documents below : )\nNext Steps:\nhttps://docs.google.com/document/d/1uYNfs3XxFeFa4PBQ6iFzLQK9Lql60G61Mdg8PfMuVuM/edit?usp=sharing <https://docs.google.com/document/d/1uYNfs3XxFeFa4PBQ6iFzLQK9Lql60G61Mdg8PfMuVuM/edit?usp=sharing>\nGithub: \nRepository: https://github.com/ClaraMarquardt/KnowingMe <https://github.com/ClaraMarquardt/KnowingMe> (will provide you with access)\nBackend (Gmail API Wrapper) Script:https://github.com/ClaraMarquardt/KnowingMe/blob/master/codebase/code/backend/gmail_api_fun.py <https://github.com/ClaraMarquardt/KnowingMe/blob/master/codebase/code/backend/gmail_api_fun.py>\nDocumentation: \nGmail API related documentation: \nhttps://developers.google.com/gmail/api/guides/performance <https://developers.google.com/gmail/api/guides/performance>\nhttps://developers.google.com/gmail/api/guides/batch <https://developers.google.com/gmail/api/guides/batch>\nhttps://developers.google.com/gmail/api/v1/reference/quota <https://developers.google.com/gmail/api/v1/reference/quota>\nClara\n'
p19
sS'msg_reply_to_id_mime'
p20
S'<313867AD-D00D-4EAF-A4D1-F89122C53DDF@college.harvard.edu>'
p21
sS'msg_label'
p22
(lp23
VSENT
p24
asS'msg_cc'
p25
NsS'msg_bcc'
p26
Ns.