(dp1
S'msg_subject'
p2
S''
sS'msg_from'
p3
S'Clara Marquardt <marquardt.clara@gmail.com>'
p4
sS'msg_to'
p5
S'Ulla Marquardt <ulla.marquardt@yahoo.de>'
p6
sS'msg_inbox_outbox'
p7
S'outbox'
p8
sS'msg_id'
p9
V16004c7379f6ad49
p10
sS'msg_threadid'
p11
V16004c7379f6ad49
p12
sS'msg_date'
p13
S'Tue, 28 Nov 2017 23:37:30 +0100'
p14
sS'msg_id_mime'
p15
S'<8A78BE32-463B-414A-91E6-715F096F364E@gmail.com>'
p16
sS'msg_text'
p17
S'https://claramarquardt.github.io/\n'
p18
sS'msg_reply_to_id_mime'
p19
Fnan
sS'msg_label'
p20
(lp21
VSENT
p22
asS'msg_cc'
p23
NsS'msg_bcc'
p24
Ns.