(dp1
S'msg_subject'
p2
S'Re:'
p3
sS'msg_from'
p4
S'Clara Marquardt <marquardt.clara@gmail.com>'
p5
sS'msg_to'
p6
S'alf zips <alfzips@gmail.com>,\r\n Ulla Marquardt <ulla.marquardt@yahoo.de>'
p7
sS'msg_inbox_outbox'
p8
S'outbox'
p9
sS'msg_id'
p10
V160cf705645525f7
p11
sS'msg_threadid'
p12
V160cae524f17eafa
p13
sS'msg_date'
p14
S'Sun, 7 Jan 2018 01:04:59 -0600'
p15
sS'msg_id_mime'
p16
S'<12359281-25A4-4DD4-8DF6-AFAD3028E4E0@gmail.com>'
p17
sS'msg_text'
p18
S'Hallo, \nhuhn kann sich den text nicht mehr anschauen. Mache mich jetzt also mal an die presentation. Draft (attached ) hat jetzt 387 W\xc3\xb6rter - also nicht mehr die welt von 330. Das Hauptproblem das ich sehe:\n1. die Beispiele muesssen noch besser ausgearbeitet werden (k\xc3\xbcrzer, pr\xc3\xa4ziser und mehr zahlen (das wird schwer))\n'
p19
sS'msg_reply_to_id_mime'
p20
S'<CAF34eQFEoxhwzJbPgXVmkDDKrLau0b3_5poawpZOiOEgeXsChA@mail.gmail.com>'
p21
sS'msg_label'
p22
(lp23
VIMPORTANT
p24
aVSENT
p25
asS'msg_cc'
p26
NsS'msg_bcc'
p27
Ns.