(dp1
S'msg_subject'
p2
S'Pass data from JS to flask'
p3
sS'msg_from'
p4
S'Clara Marquardt <marquardt.clara@gmail.com>'
p5
sS'msg_to'
p6
S'"marquardt.clara@gmail.com" <marquardt.clara@gmail.com>'
p7
sS'msg_inbox_outbox'
p8
S'outbox'
p9
sS'msg_id'
p10
V161064ddcb0f83b6
p11
sS'msg_threadid'
p12
V161064ddcb0f83b6
p13
sS'msg_date'
p14
S'Wed, 17 Jan 2018 16:45:58 -0600'
p15
sS'msg_id_mime'
p16
S'<5a5fd265.4468240a.b8f2d.4823@mx.google.com>'
p17
sS'msg_text'
p18
S'\nSent from Mail for Windows 10\nhttp://flask.pocoo.org/docs/0.12/patterns/jquery/\n'
p19
sS'msg_reply_to_id_mime'
p20
Fnan
sS'msg_label'
p21
(lp22
VIMPORTANT
p23
aVSENT
p24
aVINBOX
p25
asS'msg_cc'
p26
NsS'msg_bcc'
p27
Ns.