(dp1
S'msg_subject'
p2
S''
sS'msg_from'
p3
S'Clara Marquardt <marquardt.clara@gmail.com>'
p4
sS'msg_to'
p5
S'alf zips <alfzips@gmail.com>'
p6
sS'msg_inbox_outbox'
p7
S'outbox'
p8
sS'msg_id'
p9
V15fdc103786f1f80
p10
sS'msg_threadid'
p11
V15fdc103786f1f80
p12
sS'msg_date'
p13
S'Mon, 20 Nov 2017 18:52:50 -0600'
p14
sS'msg_id_mime'
p15
S'<4464CD7D-9701-40E1-8C6E-60C5766BA551@gmail.com>'
p16
sS'msg_text'
p17
S'https://www.dataiku.com/ <https://www.dataiku.com/>\nbin dar\xc3\xbcber gerade gestolpert'
p18
sS'msg_reply_to_id_mime'
p19
Fnan
sS'msg_label'
p20
(lp21
VIMPORTANT
p22
aVSENT
p23
asS'msg_cc'
p24
NsS'msg_bcc'
p25
Ns.