(dp1
S'msg_subject'
p2
S'Re:'
p3
sS'msg_from'
p4
S'Clara Marquardt <marquardt.clara@gmail.com>'
p5
sS'msg_to'
p6
S'Ulla Marquardt <ulla.marquardt@yahoo.de>'
p7
sS'msg_inbox_outbox'
p8
S'outbox'
p9
sS'msg_id'
p10
V160c41b6cb11466d
p11
sS'msg_threadid'
p12
V160c036e830c596b
p13
sS'msg_date'
p14
S'Thu, 4 Jan 2018 20:16:58 -0600'
p15
sS'msg_id_mime'
p16
S'<48EC5866-DD72-412E-8807-0A33C9BC4FED@gmail.com>'
p17
sS'msg_text'
p18
S'Danke : )\nDie sonne kommt vor all dingen um die Ecke wenn ich im M\xc3\xa4rz kuendige und mein sabbatical starte : ) : )\n'
p19
sS'msg_reply_to_id_mime'
p20
S'<169870289.864639.1515087161183@mail.yahoo.com>'
p21
sS'msg_label'
p22
(lp23
VIMPORTANT
p24
aVSENT
p25
asS'msg_cc'
p26
S'alf zips <alfzips@gmail.com>'
p27
sS'msg_bcc'
p28
Ns.