(dp1
S'msg_subject'
p2
S'Re: [Confidential] Pie News'
p3
sS'msg_from'
p4
S'Clara Marquardt <marquardt.clara@gmail.com>'
p5
sS'msg_to'
p6
S'Ceci Mourkogiannis <ceci@pie.video>,\r\n Jacob Trefethen <jacob@pie.video>,\r\n Gui Sabran <Gui@pie.video>'
p7
sS'msg_inbox_outbox'
p8
S'outbox'
p9
sS'msg_id'
p10
V1603a0a92032c2df
p11
sS'msg_threadid'
p12
V15ecaf4b5a3007b5
p13
sS'msg_date'
p14
S'Sat, 9 Dec 2017 00:50:57 -0600'
p15
sS'msg_id_mime'
p16
S'<DB4B3C8C-7EAD-4983-8B29-858FB62A4F3C@gmail.com>'
p17
sS'msg_text'
p18
S': ) : ) YOU DID IT! \nI will save everything else for a round of drinks and celebrations that needs to happen soon - for now, have an absolutely amazing next month! \nP.s. The pictures meant a lot  -  2 years down the road and I still look back on the Papero journey with the 3 of you as one of the adventures that I am most grateful for!\n'
p19
sS'msg_reply_to_id_mime'
p20
S'<CAFsSzA2MQcPemCNUZn28zjfn64ekrD7_H18Kjwo2RqnuDO9wXg@mail.gmail.com>'
p21
sS'msg_label'
p22
(lp23
VIMPORTANT
p24
aVSENT
p25
asS'msg_cc'
p26
NsS'msg_bcc'
p27
Ns.