(dp1
S'msg_subject'
p2
S'Re: Chatting about LBS'
p3
sS'msg_from'
p4
S'Clara Marquardt <marquardt.clara@gmail.com>'
p5
sS'msg_to'
p6
S'Isaac Gross <isaac.gross@gmail.com>'
p7
sS'msg_inbox_outbox'
p8
S'outbox'
p9
sS'msg_id'
p10
V161862d7ed123177
p11
sS'msg_threadid'
p12
V161585b503709b1e
p13
sS'msg_date'
p14
S'Sun, 11 Feb 2018 12:43:01 -0600'
p15
sS'msg_id_mime'
p16
S'<0B9A6AFA-44F9-408F-9AAF-3C4EBCA11709@gmail.com>'
p17
sS'msg_text'
p18
S'Hi Isaac, \nI just wanted to send you a quick note to thank you for taking the time to speak on Friday!\nI took a lot away from our conversation regarding how to best pursue my interest in international development at LBS, and your article helped me get an even better sense of what to expect regarding the journey ahead of me. \nMany thanks once more and I will make sure to keep you posted on how things turn out! \nBest wishes, \nClara\n'
p19
sS'msg_reply_to_id_mime'
p20
S'<7681DFA5-42A0-4120-9EE8-FA99F833FA63@gmail.com>'
p21
sS'msg_label'
p22
(lp23
VSENT
p24
asS'msg_cc'
p25
NsS'msg_bcc'
p26
Ns.