(dp1
S'msg_subject'
p2
S'Re: Chatting about LBS'
p3
sS'msg_from'
p4
S'Clara Marquardt <marquardt.clara@gmail.com>'
p5
sS'msg_to'
p6
S'Christoph Mueller <cmueller.mba2019@london.edu>'
p7
sS'msg_inbox_outbox'
p8
S'outbox'
p9
sS'msg_id'
p10
V16180cca9aff609f
p11
sS'msg_threadid'
p12
V161671e529511d7a
p13
sS'msg_date'
p14
S'Sat, 10 Feb 2018 11:39:09 -0600'
p15
sS'msg_id_mime'
p16
S'<F019D5E2-F28A-402A-A08D-CDFD25124B4C@gmail.com>'
p17
sS'msg_text'
p18
S'Perfect! Just sent you a calendar invite. \nLooking forward to speaking, \nClara\n'
p19
sS'msg_reply_to_id_mime'
p20
S'<B7B63325-F113-4328-9F53-7EB0C11C5933@london.edu>'
p21
sS'msg_label'
p22
(lp23
VIMPORTANT
p24
aVSENT
p25
asS'msg_cc'
p26
NsS'msg_bcc'
p27
Ns.