(dp1
S'msg_subject'
p2
S'Re: No Family Is Safe From This Epidemic'
p3
sS'msg_from'
p4
S'Clara Marquardt <marquardt.clara@gmail.com>'
p5
sS'msg_to'
p6
S'"ulla.marquardt@yahoo.de" <ulla.marquardt@yahoo.de>'
p7
sS'msg_inbox_outbox'
p8
S'outbox'
p9
sS'msg_id'
p10
V160115b2350f5ba6
p11
sS'msg_threadid'
p12
V16010df0b4794217
p13
sS'msg_date'
p14
S'Fri, 1 Dec 2017 03:14:32 -0600'
p15
sS'msg_id_mime'
p16
S'<7C315B6E-DDC6-40D6-8731-097FA01C7F57@gmail.com>'
p17
sS'msg_text'
p18
S': ) Habe den Artikel auch gesehen \xe2\x80\xa6..\nPositiver - so weit wie m\xc3\xb6glich alle Vorschl\xc3\xa4ge implementiert https://claramarquardt.github.io <https://claramarquardt.github.io/>\n'
p19
sS'msg_reply_to_id_mime'
p20
S'<1390217477.10264073.1512111297493@mail.yahoo.com>'
p21
sS'msg_label'
p22
(lp23
VIMPORTANT
p24
aVSENT
p25
asS'msg_cc'
p26
NsS'msg_bcc'
p27
Ns.