(dp1
S'msg_subject'
p2
S'Re:'
p3
sS'msg_from'
p4
S'Clara Marquardt <marquardt.clara@gmail.com>'
p5
sS'msg_to'
p6
S'alf zips <alfzips@gmail.com>'
p7
sS'msg_inbox_outbox'
p8
S'outbox'
p9
sS'msg_id'
p10
V1610fc194ae6e606
p11
sS'msg_threadid'
p12
V160fe08b93de5149
p13
sS'msg_date'
p14
S'Fri, 19 Jan 2018 12:49:56 -0600'
p15
sS'msg_id_mime'
p16
S'<BE55D1CF-DEFB-4655-A767-BB8135E06261@gmail.com>'
p17
sS'msg_text'
p18
S'Wird von deinem rollator budget abgezogen ; ) \nHast du Tiger gefragt?\n'
p19
sS'msg_reply_to_id_mime'
p20
S'<CAF34eQF5Tpuji0uhnOwhsagmp8pL56Q41-Kws__0Qn+wd4vtqQ@mail.gmail.com>'
p21
sS'msg_label'
p22
(lp23
VIMPORTANT
p24
aVSENT
p25
asS'msg_cc'
p26
NsS'msg_bcc'
p27
Ns.