(dp1
S'msg_subject'
p2
S''
sS'msg_from'
p3
S'Clara Marquardt <marquardt.clara@gmail.com>'
p4
sS'msg_to'
p5
S'alf zips <alfzips@gmail.com>'
p6
sS'msg_inbox_outbox'
p7
S'outbox'
p8
sS'msg_id'
p9
V16078c62d19bcc7c
p10
sS'msg_threadid'
p11
V16078c62d19bcc7c
p12
sS'msg_date'
p13
S'Thu, 21 Dec 2017 05:12:18 -0600'
p14
sS'msg_id_mime'
p15
S'<491F333F-D1E2-4FAF-B3FC-D2DF8720D0EA@gmail.com>'
p16
sS'msg_text'
p17
S'NUR Falls du noch nicht geschaut hast - hier der jetzige Booth (booth = 999 (ziel 700-850 also noch kuerzen). A an manchen stellen noch nicht ganz ausformuliere.'
p18
sS'msg_reply_to_id_mime'
p19
Fnan
sS'msg_label'
p20
(lp21
VIMPORTANT
p22
aVSENT
p23
asS'msg_cc'
p24
NsS'msg_bcc'
p25
Ns.