(dp1
S'msg_subject'
p2
S''
sS'msg_from'
p3
S'Clara Marquardt <marquardt.clara@gmail.com>'
p4
sS'msg_to'
p5
S'alf zips <alfzips@gmail.com>,\r\n Ulla Marquardt <ulla.marquardt@yahoo.de>'
p6
sS'msg_inbox_outbox'
p7
S'outbox'
p8
sS'msg_id'
p9
V160ae473b2d232b2
p10
sS'msg_threadid'
p11
V160ae473b2d232b2
p12
sS'msg_date'
p13
S'Sun, 31 Dec 2017 14:32:46 -0600'
p14
sS'msg_id_mime'
p15
S'<C3218C16-DAA4-44EC-B2B4-7249EFBFD3BC@gmail.com>'
p16
sS'msg_text'
p17
S'Hallo, \nattached eine pdf version der beizen forms mit all den Short answer questions (ist glaube ich einfacher zu lesen als im online form). Werde morgen noch mal alle fragen \xc3\xbcberarbeiten - k\xc3\xb6nnen ja vieleiceht kurz morgen \xc3\xbcber die wichtigsten fragen reden. \nDie essays/den CV im booth form k\xc3\xb6nnt ihr ignorieren (sind noch alte Versionen)\n'
p18
sS'msg_reply_to_id_mime'
p19
Fnan
sS'msg_label'
p20
(lp21
VSENT
p22
asS'msg_cc'
p23
NsS'msg_bcc'
p24
Ns.