(dp1
S'msg_subject'
p2
S'Re:'
p3
sS'msg_from'
p4
S'Clara Marquardt <marquardt.clara@gmail.com>'
p5
sS'msg_to'
p6
S'alf zips <alfzips@gmail.com>'
p7
sS'msg_inbox_outbox'
p8
S'outbox'
p9
sS'msg_id'
p10
V1612c458b1c9479f
p11
sS'msg_threadid'
p12
V1612c3325a3600c3
p13
sS'msg_date'
p14
S'Thu, 25 Jan 2018 01:43:30 -0600'
p15
sS'msg_id_mime'
p16
S'<CC5FB589-1726-401F-BAD2-20EA093DE06F@gmail.com>'
p17
sS'msg_text'
p18
S'Huhn ist so oder so zu bl\xc3\xb6d fuer (MBA) tests \r'
p19
sS'msg_reply_to_id_mime'
p20
S'<BB71CBB7-7067-41AB-8B5B-4784FCCB607F@gmail.com>'
p21
sS'msg_label'
p22
(lp23
VIMPORTANT
p24
aVSENT
p25
asS'msg_cc'
p26
NsS'msg_bcc'
p27
Ns.