(dp1
S'msg_subject'
p2
S'RE: Re:'
p3
sS'msg_from'
p4
S'Clara Marquardt <marquardt.clara@gmail.com>'
p5
sS'msg_to'
p6
S'alf zips <alfzips@gmail.com>'
p7
sS'msg_inbox_outbox'
p8
S'outbox'
p9
sS'msg_id'
p10
V1611ed882569a418
p11
sS'msg_threadid'
p12
V1611b3e5a3bd27d6
p13
sS'msg_date'
p14
S'Mon, 22 Jan 2018 11:08:22 -0600'
p15
sS'msg_id_mime'
p16
S'<5a661ac1.920d240a.ecc95.878d@mx.google.com>'
p17
sS'msg_text'
p18
S'Lass es uns versuchen. Bin I\xe2\x80\x99m buero \xe2\x80\x93 mal sehen wie frueh ich gehen kann\nSent from Mail for Windows 10\n'
p19
sS'msg_reply_to_id_mime'
p20
S' <CAF34eQFZp4g7Vu8kFUTroNKktCwaqqHib7tDnQWTiJruveLeXQ@mail.gmail.com>'
p21
sS'msg_label'
p22
(lp23
VSENT
p24
asS'msg_cc'
p25
NsS'msg_bcc'
p26
Ns.