(dp1
S'msg_subject'
p2
S'Re: LBS Interview'
p3
sS'msg_from'
p4
S'Clara Marquardt <marquardt.clara@gmail.com>'
p5
sS'msg_to'
p6
S'Lisa Jaffre Christensen <lisachristensen214@gmail.com>'
p7
sS'msg_inbox_outbox'
p8
S'outbox'
p9
sS'msg_id'
p10
V16186244508bdfd5
p11
sS'msg_threadid'
p12
V16176b391898735c
p13
sS'msg_date'
p14
S'Sun, 11 Feb 2018 12:32:56 -0600'
p15
sS'msg_id_mime'
p16
S'<CDFD4678-3625-45F7-8EB9-78F733B8D920@gmail.com>'
p17
sS'msg_text'
p18
S'Hi Lisa, \nMany thanks for being so flexible regarding time and location and my apologies for responding with a delay. \nFriday, March 2nd would be great. I have not been to Skokie before, but this will be a perfect opportunity to get out of the city. Please let me know where in Skokie would be most convenient for you to meet. \nI very much look forward to our conversation!\nMany thanks, \nClara\n'
p19
sS'msg_reply_to_id_mime'
p20
S'<29924838-61EA-4D5B-A421-3A59F631EEB0@gmail.com>'
p21
sS'msg_label'
p22
(lp23
VIMPORTANT
p24
aVSENT
p25
asS'msg_cc'
p26
NsS'msg_bcc'
p27
Ns.