(dp1
S'msg_subject'
p2
S'Re: WG: USPS Proof of Delivery Info for CY714134182DE'
p3
sS'msg_from'
p4
S'Clara Marquardt <marquardt.clara@gmail.com>'
p5
sS'msg_to'
p6
S'Ulla Marquardt <ulla.marquardt@yahoo.de>'
p7
sS'msg_inbox_outbox'
p8
S'outbox'
p9
sS'msg_id'
p10
V1607f7e26e1a6ed2
p11
sS'msg_threadid'
p12
V1607e29152f000c8
p13
sS'msg_date'
p14
S'Fri, 22 Dec 2017 12:31:01 -0600'
p15
sS'msg_id_mime'
p16
S'<CAC77MjJY96QtWJLDUPr4=rMgvqzMxsC23eeY94AKcbQv1Udu0A@mail.gmail.com>'
p17
sS'msg_text'
p18
S'Nein aber das pdf sagt ja auch das sie das Paket nicht finden k\xc3\xb6nnen\xf0\x9f\x98\x94\nliebes, ist das paket mit Mantel angekommen??\n----- Weitergeleitete Message -----\n*Von:* "auto-reply@usps.com" <auto-reply@usps.com>\n*An:* ulla.marquardt@yahoo.de\n*Gesendet:* 12:40 Freitag, 22.Dezember 2017\n*Betreff:* USPS Proof of Delivery Info for CY714134182DE\n<https://www.usps.com/welcome.htm> Tracking Number: CY714134182DE\n------------------------------\nHello ulla marquardt,\nThank you for using USPS.com.\nThis is a post-only message. Please do not respond.\nTracking Number: CY714134182DE\n<https://tools.usps.com/go/TrackConfirmAction.action?tRef=fullpage&tLc=1&tLabels=CY714134182DE>\nService Type: International Parcels\nThank you for requesting a Proof of Delivery letter on your shipment.\nYour Proof of Delivery letter is included in a PDF file attached to this\nemail. You will need Adobe Acrobat Reader software to view the PDF file.\nDownload Adobe Acrobat Reader for free by going to\nhttp://www.adobe.com/products/acrobat/readstep2.html.\nIf you have additional questions on USPS Tracking\xc2\xae services and features or\nif you have difficulties viewing the attached file, please visit the\nFrequently Asked Questions (FAQs) section of our USPS Tracking\xc2\xae site at\nhttp://www.usps.com/shipping/uspstrackingfaqs.htm for more information.\nAttachment: Proof of Delivery letter (PDF)\n------------------------------------------------------------\n------------------\nResults provided by the U.S. Postal Service.\nWant to Track on the go?\nYou can track your packages using USPS Text Tracking\xe2\x84\xa2 by texting your\ntracking number to 28777 (2USPS\xe2\x84\xa2) or selecting the Text Update option on\nour USPS Tracking\xc2\xae site. Standard Message and Data Rates may apply.\nFor more information go to https://www.usps.com/text-tracking/welcome.htm\nDownload USPS Mobile\xc2\xae\n[image: Image of the Google Play Icon.]\n<https://play.google.com/store/apps/details?id=com.usps> [image: Image of\nthe App Store Icon.]\n<https://itunes.apple.com/us/app/usps-mobile/id339597578?mt=8>\n------------------------------\nUSPS.com <https://www.usps.com/>| Privacy Policy\n<http://about.usps.com/who-we-are/privacy-policy/privacy-policy-highlights.htm>\n| Customer Service\n<https://www.usps.com/customer-service/customer-service.htm>| FAQs\n<http://faq.usps.com/adaptivedesktop/faq.jsp?ef=USPSFAQ>\n[image: Image of Facebook social media icon.]\n<https://www.facebook.com/USPS?rf=108501355848630> [image: Image of Twitter\nsocial media con.] <https://twitter.com/usps> [image: Image of Youtube\nsocial media icon.] <https://www.youtube.com/usps> [image: Image of Postal\nBlog social media icon.] <http://uspsblog.com/> [image: Image of Instagram\nsocial icon.] <http://instagram.com/uspostalservice> [image: Image of\nPinterest social icon.] <http://pinterest.com/uspsstamps/> [image: Image of\nLinkedIn social media icon.]\n<https://www.linkedin.com/company/3694?trk=tyah&trkInfo=tarId%3A1414507670689%2Ctas%3AUSPS%2Cidx%3A2-1-4>\nThis is an automated email please do not reply to this message. This\nmessage is for the designated recipient only and may contain privileged,\nproprietary, or otherwise private information. If you have received it in\nerror, please delete. Any other use of the email by you is prohibited.\n'
p19
sS'msg_reply_to_id_mime'
p20
S'<CAC77MjK3cvX4zWLUMewiEaM1AdYenv0CwYCD0zd=zWa32bOAjw@mail.gmail.com>'
p21
sS'msg_label'
p22
(lp23
VSENT
p24
asS'msg_cc'
p25
NsS'msg_bcc'
p26
Ns.