(dp1
S'msg_subject'
p2
S'Re: Applicant - Research Assistant for a Project on Gender Bias and\n Machine Learning'
p3
sS'msg_from'
p4
S'Clara Marquardt <marquardt.clara@gmail.com>'
p5
sS'msg_to'
p6
S'sarah.schwartzmeyer@gmail.com'
p7
sS'msg_inbox_outbox'
p8
S'outbox'
p9
sS'msg_id'
p10
V1614e276125d056d
p11
sS'msg_threadid'
p12
V1614df3df8281cbe
p13
sS'msg_date'
p14
S'Wed, 31 Jan 2018 15:37:38 -0600'
p15
sS'msg_id_mime'
p16
S'<BD581279-4CAD-47F3-9B61-E02F2EE6ABAF@gmail.com>'
p17
sS'msg_text'
p18
S'Hi Sarah, \nGreat to hear that you are interested in the project! At this point, all positions have unfortunately been filled but I will make sure to circle back to you should a new role open up.\nMany thanks, \nClara'
p19
sS'msg_reply_to_id_mime'
p20
S'<3DBB5E22-2F1C-4832-B97E-502E7E6127C3@gmail.com>'
p21
sS'msg_label'
p22
(lp23
VIMPORTANT
p24
aVSENT
p25
asS'msg_cc'
p26
NsS'msg_bcc'
p27
Ns.