(dp1
S'msg_subject'
p2
S'Re:'
p3
sS'msg_from'
p4
S'Clara Marquardt <marquardt.clara@gmail.com>'
p5
sS'msg_to'
p6
S'alf zips <alfzips@gmail.com>'
p7
sS'msg_inbox_outbox'
p8
S'outbox'
p9
sS'msg_id'
p10
V160f101e634c2bc0
p11
sS'msg_threadid'
p12
V160ed7dc05ba4b33
p13
sS'msg_date'
p14
S'Sat, 13 Jan 2018 13:32:01 -0600'
p15
sS'msg_id_mime'
p16
S'<4D287FD6-5F05-461C-A37F-E57819481BDF@gmail.com>'
p17
sS'msg_text'
p18
S'Aus SUPER H\xc3\xbchnern wird keine haarlose giraffe. Aus Suppenh\xc3\xbchner dagegen\xe2\x80\xa6. : ) \nAufjedenfall muss ich jetzt jedesmal lachen wenn Nachricht von dir kommt\r'
p19
sS'msg_reply_to_id_mime'
p20
S'<CAF34eQGuOjihfn1LELB1gEoUS3cvEb_hwvW22AONty7UpiNcxw@mail.gmail.com>'
p21
sS'msg_label'
p22
(lp23
VIMPORTANT
p24
aVSENT
p25
asS'msg_cc'
p26
NsS'msg_bcc'
p27
Ns.