(dp1
S'msg_subject'
p2
S'RE: Re:'
p3
sS'msg_from'
p4
S'Clara Marquardt <marquardt.clara@gmail.com>'
p5
sS'msg_to'
p6
S'Ulla Marquardt <ulla.marquardt@yahoo.de>'
p7
sS'msg_inbox_outbox'
p8
S'outbox'
p9
sS'msg_id'
p10
V160e73db4a50d540
p11
sS'msg_threadid'
p12
V160e6d8dd18a1cf4
p13
sS'msg_date'
p14
S'Thu, 11 Jan 2018 16:00:01 -0600'
p15
sS'msg_id_mime'
p16
S'<5a57dea5.423a240a.b0f85.7bdb@mx.google.com>'
p17
sS'msg_text'
p18
S'Mantel ist toll : )\nSent from Mail for Windows 10\n'
p19
sS'msg_reply_to_id_mime'
p20
S'<1004319119.2472638.1515702103263@mail.yahoo.com>'
p21
sS'msg_label'
p22
(lp23
VSENT
p24
asS'msg_cc'
p25
NsS'msg_bcc'
p26
Ns.