(dp1
S'msg_subject'
p2
S'Re: [urgent] Addition to Letter of Transmittal'
p3
sS'msg_from'
p4
S'Clara Marquardt <marquardt.clara@gmail.com>'
p5
sS'msg_to'
p6
S'Jacob Trefethen <jacob@pie.video>'
p7
sS'msg_inbox_outbox'
p8
S'outbox'
p9
sS'msg_id'
p10
V16023ec346e4c0c2
p11
sS'msg_threadid'
p12
V16023eb5b5bc334b
p13
sS'msg_date'
p14
S'Mon, 4 Dec 2017 17:46:11 -0600'
p15
sS'msg_id_mime'
p16
S'<CAC77MjL2_fSWfiABNRkBUioow2OQecL4ZZ7RrJD407+u7N0u5A@mail.gmail.com>'
p17
sS'msg_text'
p18
S'Hi Jacob,\nI am of course fine with this change!\nClara\n'
p19
sS'msg_reply_to_id_mime'
p20
S'<3AF4095D-E882-4053-A27B-E507134F7D3D@pie.video>'
p21
sS'msg_label'
p22
(lp23
VIMPORTANT
p24
aVSENT
p25
asS'msg_cc'
p26
NsS'msg_bcc'
p27
Ns.