(dp1
S'msg_subject'
p2
S'Re: Quick multiple outcome related question'
p3
sS'msg_from'
p4
S'Clara Marquardt <marquardt.clara@gmail.com>'
p5
sS'msg_to'
p6
S'Jann Spiess <jann.spiess@gmail.com>'
p7
sS'msg_inbox_outbox'
p8
S'outbox'
p9
sS'msg_id'
p10
V160de6a0cc2838b2
p11
sS'msg_threadid'
p12
V160dd78d87344182
p13
sS'msg_date'
p14
S'Tue, 9 Jan 2018 22:52:59 -0600'
p15
sS'msg_id_mime'
p16
S'<7CC7F22E-4FC4-4A7A-9B86-7AA4D35B74BD@gmail.com>'
p17
sS'msg_text'
p18
S'Great - thanks so much for the quick reply! Will make sure to compare the results with the results we obtain when we combine the different treatment groups. \nBest of luck for the trip tomorrow!\nClara\n'
p19
sS'msg_reply_to_id_mime'
p20
S'<CANGm9-DKrEo1m=3P=NZGWYW31S819rCGQ9NuH-Y6zx2TWWd9UA@mail.gmail.com>'
p21
sS'msg_label'
p22
(lp23
VSENT
p24
asS'msg_cc'
p25
S'"Ludwig, Jens O" <jludwig@uchicago.edu>'
p26
sS'msg_bcc'
p27
Ns.