(dp1
S'msg_subject'
p2
S'Re: Chatting about Sloan'
p3
sS'msg_from'
p4
S'Clara Marquardt <marquardt.clara@gmail.com>'
p5
sS'msg_to'
p6
S'Lara Ortiz-Luis <lyortizluis@gmail.com>'
p7
sS'msg_inbox_outbox'
p8
S'outbox'
p9
sS'msg_id'
p10
V1610d6fc98833989
p11
sS'msg_threadid'
p12
V160de66ec293d480
p13
sS'msg_date'
p14
S'Fri, 19 Jan 2018 02:01:23 -0600'
p15
sS'msg_id_mime'
p16
S'<29F1A713-7019-41BD-A324-AB1B019E44F3@gmail.com>'
p17
sS'msg_text'
p18
S'Hi Lara, \nThank you again for taking all the time this morning to chat - I took a lot away from our conversation and left feeling even more excited about Sloan\xe2\x80\x99s entrepreneurship opportunities!\nI will keep you posted on how things turn out. \nI hope you have a great rest of your time in Australia and a good trip back. \nBest wishes,\nClara\n'
p19
sS'msg_reply_to_id_mime'
p20
S'<CAPTB0ry4G0D-kbWvJyGnMA8OajqZGNO8P=-Di21YhxWfhh6oXA@mail.gmail.com>'
p21
sS'msg_label'
p22
(lp23
VIMPORTANT
p24
aVSENT
p25
asS'msg_cc'
p26
NsS'msg_bcc'
p27
Ns.