(dp1
S'msg_subject'
p2
S'Re: RA inquiry'
p3
sS'msg_from'
p4
S'Clara Marquardt <marquardt.clara@gmail.com>'
p5
sS'msg_to'
p6
S'meiri.anto@gmail.com'
p7
sS'msg_inbox_outbox'
p8
S'outbox'
p9
sS'msg_id'
p10
V160c4741acda3159
p11
sS'msg_threadid'
p12
V160c2bad9dcd3700
p13
sS'msg_date'
p14
S'Thu, 4 Jan 2018 21:53:51 -0600'
p15
sS'msg_id_mime'
p16
S'<F8E78560-3120-40F7-9413-7F8D8566515E@gmail.com>'
p17
sS'msg_text'
p18
S'Hi Meiri, \nReally great to hear that you are interested in the position. At this point all positions have unfortunately been filled but I will make sure to circle back to you should a new position open up!\nMany thanks and all the best for the new year, \nClara\n'
p19
sS'msg_reply_to_id_mime'
p20
S'<SN4PR0701MB364802FA87D8FF6CE80CB24BE51F0@SN4PR0701MB3648.namprd07.prod.outlook.com>'
p21
sS'msg_label'
p22
(lp23
VSENT
p24
asS'msg_cc'
p25
NsS'msg_bcc'
p26
Ns.