(dp1
S'msg_subject'
p2
S'Re: Connecting you with Clara - gender bias app'
p3
sS'msg_from'
p4
S'Clara Marquardt <marquardt.clara@gmail.com>'
p5
sS'msg_to'
p6
S'Cameron Cohen <cameron_cohen@college.harvard.edu>'
p7
sS'msg_inbox_outbox'
p8
S'outbox'
p9
sS'msg_id'
p10
V15fdff824b4626fd
p11
sS'msg_threadid'
p12
V15fd94f6ccdcbbd1
p13
sS'msg_date'
p14
S'Tue, 21 Nov 2017 13:05:00 -0600'
p15
sS'msg_id_mime'
p16
S'<20207DAE-3B5B-45F0-AAF2-DEDF11D5A7D1@gmail.com>'
p17
sS'msg_text'
p18
S'Perfect!\r'
p19
sS'msg_reply_to_id_mime'
p20
S'<313867AD-D00D-4EAF-A4D1-F89122C53DDF@college.harvard.edu>'
p21
sS'msg_label'
p22
(lp23
VIMPORTANT
p24
aVSENT
p25
asS'msg_cc'
p26
NsS'msg_bcc'
p27
Ns.