(dp1
S'msg_subject'
p2
S'Meeting today'
p3
sS'msg_from'
p4
S'Clara Marquardt <marquardt.clara@gmail.com>'
p5
sS'msg_to'
p6
S'Catherine Schwarz <cschwarz@uchicago.edu>'
p7
sS'msg_inbox_outbox'
p8
S'outbox'
p9
sS'msg_id'
p10
V15fa9e0ad13be7f8
p11
sS'msg_threadid'
p12
V15fa9e0ad13be7f8
p13
sS'msg_date'
p14
S'Sat, 11 Nov 2017 00:59:54 -0600'
p15
sS'msg_id_mime'
p16
S'<4BE7BAB2-AADB-427B-93D0-AFAC3D446D96@gmail.com>'
p17
sS'msg_text'
p18
S'Hi Catherine, \nI am back in Boston today putting what I believe to be the final few things together for the paper : ) I am sorry for not letting you know earlier!\nI would be free at 3.30pm Chicago time to do a Skype checkin in place of our usual meeting or if this is more convenient for you we could find some other time that works of you!\nMany thanks,\nClara\n__\nClara Marquardt\nProject Associate\nUChicago Crime Lab\nurbanlabs.uchicago.edu <http://urbanlabs.uchicago.edu/>\n \nUniversity of Chicago Urban Labs \n33 N. LaSalle Street, Suite 1600 \nChicago, IL 60602\n\n'
p19
sS'msg_reply_to_id_mime'
p20
Fnan
sS'msg_label'
p21
(lp22
VSENT
p23
asS'msg_cc'
p24
NsS'msg_bcc'
p25
Ns.