(dp1
S'msg_subject'
p2
S"RE: Join Sendhil's research lab"
p3
sS'msg_from'
p4
S'Clara Marquardt <marquardt.clara@gmail.com>'
p5
sS'msg_to'
p6
S'xiaolinzhuo@fas.harvard.edu'
p7
sS'msg_inbox_outbox'
p8
S'outbox'
p9
sS'msg_id'
p10
V1617159cc1f1c06b
p11
sS'msg_threadid'
p12
V1617159cc1f1c06b
p13
sS'msg_date'
p14
S'Wed, 7 Feb 2018 11:39:23 -0600'
p15
sS'msg_id_mime'
p16
S'<083BA575-290F-4928-855C-A1BDF632A5FD@gmail.com>'
p17
sS'msg_text'
p18
S'Hi Xiaolin and Zach, \nEric had forwarded your email to me (I used to manage the team at Sendhil\xe2\x80\x99s lab). It is sometimes a bit difficult to get in touch with Sendhil - I will cc you on an email to Ziad Obermeyer (ZOBERMEYER@BWH.HARVARD.EDU) who runs the lab jointly with Sendhil. He is a usually bit easier to get hold off and should be able to discuss any next steps with you. \nMany thanks, \nClara'
p19
sS'msg_reply_to_id_mime'
p20
Fnan
sS'msg_label'
p21
(lp22
VIMPORTANT
p23
aVSENT
p24
asS'msg_cc'
p25
S'wehrwein@g.harvard.edu'
p26
sS'msg_bcc'
p27
Ns.