(dp1
S'msg_subject'
p2
S'Travel disruption!'
p3
sS'msg_from'
p4
S'Clara Marquardt <marquardt.clara@gmail.com>'
p5
sS'msg_to'
p6
S'marquardt.clara@gmail.com'
p7
sS'msg_inbox_outbox'
p8
S'outbox'
p9
sS'msg_id'
p10
V15fcb19639d6d7e6
p11
sS'msg_threadid'
p12
V15fcb19639d6d7e6
p13
sS'msg_date'
p14
S'Fri, 17 Nov 2017 09:49:19 -0800'
p15
sS'msg_id_mime'
p16
S'<CAC77MjKq+c8YjTUAL3tpoGc+t-jtpmAjRg5zz-giupLmxnp6vw@mail.gmail.com>'
p17
sS'msg_text'
p18
S'https://docs.google.com/forms/d/e/1FAIpQLSe3g55DIOweVnooYzFpGDzIkF5B7YRyPApqxEdSaVdrwUH1zw/viewform\n'
p19
sS'msg_reply_to_id_mime'
p20
Fnan
sS'msg_label'
p21
(lp22
VIMPORTANT
p23
aVSENT
p24
aVINBOX
p25
asS'msg_cc'
p26
NsS'msg_bcc'
p27
Ns.