(dp1
S'msg_subject'
p2
S'Re: [Topcoder Connect] Development Phase Start!'
p3
sS'msg_from'
p4
S'Clara Marquardt <marquardt.clara@gmail.com>'
p5
sS'msg_to'
p6
S'Bec Weeks <weeks.rebecca@gmail.com>'
p7
sS'msg_inbox_outbox'
p8
S'outbox'
p9
sS'msg_id'
p10
V161778b7812b27b9
p11
sS'msg_threadid'
p12
V1616debb30436f6b
p13
sS'msg_date'
p14
S'Thu, 8 Feb 2018 16:31:23 -0600'
p15
sS'msg_id_mime'
p16
S'<A8D4E9E2-10AD-4703-A9A6-4E13559F2801@gmail.com>'
p17
sS'msg_text'
p18
S': ) Lets see what they say!\r'
p19
sS'msg_reply_to_id_mime'
p20
S'<CAPp_zupCvr+TjiBpzo4K5pgLaTBQHBgDxYfBRG=Bt9wojvfAWA@mail.gmail.com>'
p21
sS'msg_label'
p22
(lp23
VIMPORTANT
p24
aVSENT
p25
asS'msg_cc'
p26
NsS'msg_bcc'
p27
Ns.