(dp1
S'msg_subject'
p2
S'Re: Chatting about LBS'
p3
sS'msg_from'
p4
S'Clara Marquardt <marquardt.clara@gmail.com>'
p5
sS'msg_to'
p6
S'Isaac Gross <isaac.gross@gmail.com>'
p7
sS'msg_inbox_outbox'
p8
S'outbox'
p9
sS'msg_id'
p10
V1615cd8405d961fb
p11
sS'msg_threadid'
p12
V161585b503709b1e
p13
sS'msg_date'
p14
S'Sat, 3 Feb 2018 12:05:28 -0600'
p15
sS'msg_id_mime'
p16
S'<7681DFA5-42A0-4120-9EE8-FA99F833FA63@gmail.com>'
p17
sS'msg_text'
p18
S'Hi Isaac, \nSomehow the invite didn\xe2\x80\x99t come through. I just sent you another invite. Either way, I look forward to speaking with you this Friday!\nMany thanks, \nClara\n'
p19
sS'msg_reply_to_id_mime'
p20
S'<CAP2-O2eF9HNiYtZFmaH=M3Hyz6TjLpQe_eytADG33uJJDFoZ4Q@mail.gmail.com>'
p21
sS'msg_label'
p22
(lp23
VSENT
p24
asS'msg_cc'
p25
NsS'msg_bcc'
p26
Ns.