(dp1
S'msg_subject'
p2
S'Re: Important Registration Information'
p3
sS'msg_from'
p4
S'Clara Marquardt <marquardt.clara@gmail.com>'
p5
sS'msg_to'
p6
S'kimberly.epps@chicagobooth.edu'
p7
sS'msg_inbox_outbox'
p8
S'outbox'
p9
sS'msg_id'
p10
V1612bb28f26ebf8c
p11
sS'msg_threadid'
p12
V16129f021a75993d
p13
sS'msg_date'
p14
S'Wed, 24 Jan 2018 23:02:55 -0600'
p15
sS'msg_id_mime'
p16
S'<19352858-7558-4FC4-850A-BB721DE65D5A@gmail.com>'
p17
sS'msg_text'
p18
S'Hi Kimberly, \nIf possible, I would like to attend the finance lecture. \nMany thanks, \nClara Marquardt\n'
p19
sS'msg_reply_to_id_mime'
p20
S'<bcc414f3-af2c-4b97-bc7c-1b697388a022@technolutions.net>'
p21
sS'msg_label'
p22
(lp23
VIMPORTANT
p24
aVSENT
p25
asS'msg_cc'
p26
NsS'msg_bcc'
p27
Ns.