(dp1
S'msg_subject'
p2
S'Re: [Confidential] Pie News'
p3
sS'msg_from'
p4
S'Clara Marquardt <marquardt.clara@gmail.com>'
p5
sS'msg_to'
p6
S'Jacob Trefethen <jacob@pie.video>'
p7
sS'msg_inbox_outbox'
p8
S'outbox'
p9
sS'msg_id'
p10
V15ffe1d56cc53ce1
p11
sS'msg_threadid'
p12
V15ecaf4b5a3007b5
p13
sS'msg_date'
p14
S'Mon, 27 Nov 2017 16:34:13 +0100'
p15
sS'msg_id_mime'
p16
S'<E1DB2292-B59B-41A7-B766-AE1C28DE9554@gmail.com>'
p17
sS'msg_text'
p18
S'Sorry for making this more complicated! I am indeed a resident alien : )\nW9 + the correct date attached\n'
p19
sS'msg_reply_to_id_mime'
p20
S'<26557BD4-2143-4DCF-866F-9CC4C264344B@pie.video>'
p21
sS'msg_label'
p22
(lp23
VIMPORTANT
p24
aVSENT
p25
asS'msg_cc'
p26
S'Ceci Mourkogiannis <ceci@pie.video>,\r\n Gui@pie.video'
p27
sS'msg_bcc'
p28
Ns.