(dp1
S'msg_subject'
p2
S''
sS'msg_from'
p3
S'Clara Marquardt <marquardt.clara@gmail.com>'
p4
sS'msg_to'
p5
S'Ulla Marquardt <ulla.marquardt@yahoo.de>,\r\n alf zips <alfzips@gmail.com>'
p6
sS'msg_inbox_outbox'
p7
S'outbox'
p8
sS'msg_id'
p9
V1613b5cfddc33832
p10
sS'msg_threadid'
p11
V1613b5cfddc33832
p12
sS'msg_date'
p13
S'Sun, 28 Jan 2018 00:03:23 -0600'
p14
sS'msg_id_mime'
p15
S'<1162557A-5DD3-4DD5-AA3B-22007F217D4F@gmail.com>'
p16
sS'msg_text'
p17
S'Hier mal ein erstes, schlecht geschriebenes und zu langes draft. Generelles feedback w\xc3\xa4re SUPER hilfreich (stimmt die generelle Richtung?)\n'
p18
sS'msg_reply_to_id_mime'
p19
Fnan
sS'msg_label'
p20
(lp21
VIMPORTANT
p22
aVSENT
p23
asS'msg_cc'
p24
NsS'msg_bcc'
p25
Ns.