(dp1
S'msg_subject'
p2
S'Re:'
p3
sS'msg_from'
p4
S'Clara Marquardt <marquardt.clara@gmail.com>'
p5
sS'msg_to'
p6
S'alf zips <alfzips@gmail.com>'
p7
sS'msg_inbox_outbox'
p8
S'outbox'
p9
sS'msg_id'
p10
V160f35df2d62829c
p11
sS'msg_threadid'
p12
V160ed7dc05ba4b33
p13
sS'msg_date'
p14
S'Sun, 14 Jan 2018 00:31:46 -0600'
p15
sS'msg_id_mime'
p16
S'<9AC192DB-20E3-444D-8B33-D299B2E86663@gmail.com>'
p17
sS'msg_text'
p18
S"Danke herkules!!\nNach langem hin und hehr jetzt so: \n <>I left books and classrooms behind to work as an unskilled laborer at an assembly line in a local factory. Over the course of months, I earned my co-my workers' trust and friendship - they in turn challenged me, forcing me to confront poverty in all its complexity. <>\n <>Later that year, I found myself crammed into a train compartment with migrant workers and party officials on an 18-hour journey. Unlike my  <> <>co-travelers  <>I was alone and nervous. Having never made a film I would now be on my own for months to portray life in an earthquake-stricken village.\nIch glaube so passt es *und liest sich ok*. Ist das fuer dich verst\xc3\xa4ndlich?\nDein huhn\n"
p19
sS'msg_reply_to_id_mime'
p20
S'<CAF34eQG=c89UKGCQ6uZ9JsAFDRFmfTY6jV-=Uu6RY98tF5bidg@mail.gmail.com>'
p21
sS'msg_label'
p22
(lp23
VIMPORTANT
p24
aVSENT
p25
asS'msg_cc'
p26
NsS'msg_bcc'
p27
Ns.