(dp1
S'msg_subject'
p2
S'RE: Re:'
p3
sS'msg_from'
p4
S'Clara Marquardt <marquardt.clara@gmail.com>'
p5
sS'msg_to'
p6
S'alf zips <alfzips@gmail.com>'
p7
sS'msg_inbox_outbox'
p8
S'outbox'
p9
sS'msg_id'
p10
V160eb90e1ff93f32
p11
sS'msg_threadid'
p12
V160e3c7330af3073
p13
sS'msg_date'
p14
S'Fri, 12 Jan 2018 12:09:20 -0600'
p15
sS'msg_id_mime'
p16
S'<5a58fa14.cf836b0a.81dec.21a4@mx.google.com>'
p17
sS'msg_text'
p18
S'Danke \xf0\x9f\x98\x8a\nAttached die neuste version des cover letters \xe2\x80\x93 genau 330 woerter.\nSent from Mail for Windows 10\n'
p19
sS'msg_reply_to_id_mime'
p20
S' <CAF34eQExRTZeYywL9fiaboT2kyu+ODRobB-_uR2KL-wc5ySZNg@mail.gmail.com>'
p21
sS'msg_label'
p22
(lp23
VIMPORTANT
p24
aVSENT
p25
asS'msg_cc'
p26
NsS'msg_bcc'
p27
Ns.