(dp1
S'msg_subject'
p2
S'Re: LBS Interview'
p3
sS'msg_from'
p4
S'Clara Marquardt <marquardt.clara@gmail.com>'
p5
sS'msg_to'
p6
S'Lisa Jaffre Christensen <lisachristensen214@gmail.com>'
p7
sS'msg_inbox_outbox'
p8
S'outbox'
p9
sS'msg_id'
p10
V1618cc258e2946a4
p11
sS'msg_threadid'
p12
V16176b391898735c
p13
sS'msg_date'
p14
S'Mon, 12 Feb 2018 19:23:21 -0600'
p15
sS'msg_id_mime'
p16
S'<E8D2FDE5-9FF3-40F9-A750-8235822121D6@gmail.com>'
p17
sS'msg_text'
p18
S'Hi Lisa, \nMany thanks for making these arrangements!\nI will look out for your email about whether we will be able to enter the office before 8.30. For now, I will plan on being there at 8. \nBest wishes, \nClara\n'
p19
sS'msg_reply_to_id_mime'
p20
S'<9DBE71A9-4207-4D0B-B0C0-487E8E18723A@gmail.com>'
p21
sS'msg_label'
p22
(lp23
VSENT
p24
asS'msg_cc'
p25
NsS'msg_bcc'
p26
Ns.