(dp1
S'msg_subject'
p2
S''
sS'msg_from'
p3
S'Clara Marquardt <marquardt.clara@gmail.com>'
p4
sS'msg_to'
p5
S'Clara Marquardt <marquardt.clara@gmail.com>'
p6
sS'msg_inbox_outbox'
p7
S'outbox'
p8
sS'msg_id'
p9
V160c5f2332b3d33b
p10
sS'msg_threadid'
p11
V160c5f0bc240be4b
p12
sS'msg_date'
p13
S'Fri, 5 Jan 2018 04:51:12 -0600'
p14
sS'msg_id_mime'
p15
S'<CAC77MjLWsEzQK97CBUNCHBeoLGYWBJM5E36kFo00oM3M9ExD=w@mail.gmail.com>'
p16
sS'msg_text'
p17
S"Example\nOk Image- empower Herr best human\nLbs ok no leadership example\nVs.\nNot\nPivot stop\nHere scale up vs. Problems emerged team morale fell and.... - didn't have\nsystems and policies in place what had worked small team did not work part\nteam my role institutionalize\n"
p18
sS'msg_reply_to_id_mime'
p19
S'<CAC77Mj+GVL=Do6Nnx08Vj8Xd7j97kcqnL3LXNR2rLPoO5eLtag@mail.gmail.com>'
p20
sS'msg_label'
p21
(lp22
VIMPORTANT
p23
aVSENT
p24
aVINBOX
p25
asS'msg_cc'
p26
NsS'msg_bcc'
p27
Ns.