(dp1
S'msg_subject'
p2
S'Re: Clara Marquardt paid you $37.00 on Venmo'
p3
sS'msg_from'
p4
S'Clara Marquardt <marquardt.clara@gmail.com>'
p5
sS'msg_to'
p6
S'Shreyas Lakhtakia <shreyaslakhtakia@gmail.com>'
p7
sS'msg_inbox_outbox'
p8
S'outbox'
p9
sS'msg_id'
p10
V160c443116985c23
p11
sS'msg_threadid'
p12
V160c43f6689f6e52
p13
sS'msg_date'
p14
S'Thu, 4 Jan 2018 21:00:15 -0600'
p15
sS'msg_id_mime'
p16
S'<62B3BA67-F11D-4452-90DE-A0E45B8D06A7@gmail.com>'
p17
sS'msg_text'
p18
S': ) \r'
p19
sS'msg_reply_to_id_mime'
p20
S'<CALEjPT8vjxDaz=iBoX5+Kb5K=bhma_7KaAkf0TSZeO2mS7ZZDA@mail.gmail.com>'
p21
sS'msg_label'
p22
(lp23
VIMPORTANT
p24
aVSENT
p25
asS'msg_cc'
p26
NsS'msg_bcc'
p27
Ns.