(dp1
S'msg_subject'
p2
S''
sS'msg_from'
p3
S'Clara Marquardt <marquardt.clara@gmail.com>'
p4
sS'msg_to'
p5
S'Clara Marquardt <marquardt.clara@gmail.com>'
p6
sS'msg_inbox_outbox'
p7
S'outbox'
p8
sS'msg_id'
p9
V160165f7667e2750
p10
sS'msg_threadid'
p11
V160165f7667e2750
p12
sS'msg_date'
p13
S'Sat, 2 Dec 2017 09:37:23 +0100'
p14
sS'msg_id_mime'
p15
S'<CAC77MjLhUV_EfRNnj-v_w-LVrob8wPortEQtteSSw+zuv2V7fw@mail.gmail.com>'
p16
sS'msg_text'
p17
S'\n'
sS'msg_reply_to_id_mime'
p18
Fnan
sS'msg_label'
p19
(lp20
VIMPORTANT
p21
aVSENT
p22
asS'msg_cc'
p23
NsS'msg_bcc'
p24
Ns.