(dp1
S'msg_subject'
p2
S''
sS'msg_from'
p3
S'Clara Marquardt <marquardt.clara@gmail.com>'
p4
sS'msg_to'
p5
S'Clara Marquardt <marquardt.clara@gmail.com>'
p6
sS'msg_inbox_outbox'
p7
S'outbox'
p8
sS'msg_id'
p9
V16006807010f0984
p10
sS'msg_threadid'
p11
V16006807010f0984
p12
sS'msg_date'
p13
S'Wed, 29 Nov 2017 07:39:28 +0100'
p14
sS'msg_id_mime'
p15
S'<CAC77MjL91_2UgrbwbYqCzHqJfUfQxcBZL-0D__Y+9-GX6zEkAg@mail.gmail.com>'
p16
sS'msg_text'
p17
S'\n'
sS'msg_reply_to_id_mime'
p18
Fnan
sS'msg_label'
p19
(lp20
VIMPORTANT
p21
aVSENT
p22
aVINBOX
p23
asS'msg_cc'
p24
NsS'msg_bcc'
p25
Ns.