(dp1
S'msg_subject'
p2
S'Data science competition: predicting poverty is hard - can you do it\n better? | The Data Blog'
p3
sS'msg_from'
p4
S'Clara Marquardt <marquardt.clara@gmail.com>'
p5
sS'msg_to'
p6
S'Clara Marquardt <marquardt.clara@gmail.com>'
p7
sS'msg_inbox_outbox'
p8
S'outbox'
p9
sS'msg_id'
p10
V160e3e632feb07b2
p11
sS'msg_threadid'
p12
V160e3e632feb07b2
p13
sS'msg_date'
p14
S'Thu, 11 Jan 2018 00:26:42 -0600'
p15
sS'msg_id_mime'
p16
S'<CAC77MjJbDZYS09hgVYWAcf-naL-W1o0ELC6Gb=Dk8+SaYGn6Ag@mail.gmail.com>'
p17
sS'msg_text'
p18
S'https://blogs.worldbank.org/opendata/data-science-competition-predicting-poverty-hard-can-you-do-it-better\n'
p19
sS'msg_reply_to_id_mime'
p20
Fnan
sS'msg_label'
p21
(lp22
VIMPORTANT
p23
aVSENT
p24
aVINBOX
p25
asS'msg_cc'
p26
NsS'msg_bcc'
p27
Ns.