(dp1
S'msg_subject'
p2
S'Re:'
p3
sS'msg_from'
p4
S'Clara Marquardt <marquardt.clara@gmail.com>'
p5
sS'msg_to'
p6
S'Shreyas Lakhtakia <shreyaslakhtakia@gmail.com>'
p7
sS'msg_inbox_outbox'
p8
S'outbox'
p9
sS'msg_id'
p10
V160b390d1c164480
p11
sS'msg_threadid'
p12
V160b1c020d20e847
p13
sS'msg_date'
p14
S'Mon, 1 Jan 2018 15:11:37 -0600'
p15
sS'msg_id_mime'
p16
S'<75BE5136-F056-41D6-AABA-72F37582FC01@gmail.com>'
p17
sS'msg_text'
p18
S'Perfect\r'
p19
sS'msg_reply_to_id_mime'
p20
S'<CALEjPT8VKHW7VfdWzaxE+_6K3sQ7Ek4iVtzzO27GizG_BQpwcw@mail.gmail.com>'
p21
sS'msg_label'
p22
(lp23
VSENT
p24
asS'msg_cc'
p25
NsS'msg_bcc'
p26
Ns.