(dp1
S'msg_subject'
p2
S'RE: Application Research Assistant for a Project on Gender\n BiasandMachine Learning'
p3
sS'msg_from'
p4
S'Clara Marquardt <marquardt.clara@gmail.com>'
p5
sS'msg_to'
p6
S'"Unverzagt, Eric" <eunverz@fas.harvard.edu>'
p7
sS'msg_inbox_outbox'
p8
S'outbox'
p9
sS'msg_id'
p10
V1600e43f7e6daebc
p11
sS'msg_threadid'
p12
V1600d5d7d7b05666
p13
sS'msg_date'
p14
S'Thu, 30 Nov 2017 12:48:46 -0600'
p15
sS'msg_id_mime'
p16
S'<5a2052ef.8a8e6b0a.6f7a4.e470@mx.google.com>'
p17
sS'msg_text'
p18
S'The subject line suggests so but I am not quite sure if the ad was actually read \xe2\x80\x93 the email is very generic. I suspect that the candidate sent the same email to multiple positions one of them  being with Activision. \nSent from Mail for Windows 10\n'
p19
sS'msg_reply_to_id_mime'
p20
S' <SN4PR0701MB36488794BF9B9A365C4CE976E5380@SN4PR0701MB3648.namprd07.prod.outlook.com>'
p21
sS'msg_label'
p22
(lp23
VIMPORTANT
p24
aVSENT
p25
asS'msg_cc'
p26
NsS'msg_bcc'
p27
Ns.