(dp1
S'msg_subject'
p2
S'Chatting about LBS'
p3
sS'msg_from'
p4
S'Clara Marquardt <marquardt.clara@gmail.com>'
p5
sS'msg_to'
p6
S'isaac.gross@gmail.com'
p7
sS'msg_inbox_outbox'
p8
S'outbox'
p9
sS'msg_id'
p10
V161585b503709b1e
p11
sS'msg_threadid'
p12
V161585b503709b1e
p13
sS'msg_date'
p14
S'Fri, 2 Feb 2018 15:10:28 -0600'
p15
sS'msg_id_mime'
p16
S'<BC3F73DF-5486-4E34-BD1D-FF379C7DDD1D@gmail.com>'
p17
sS'msg_text'
p18
S'Hi Isaac, \nI had previously messaged you on LinkedIn - thank you so much for responding so quickly!\nI am currently based in Chicago - 6 hours behind London time. In terms of my schedule - I am very flexible in the coming weeks and could make afternoon/evening London time most days. \nPlease let me know which days/times would be most convenient for you, and I will make sure to make those times work!\nI look forward to speaking with you soon!\nBest wishes, \nClara'
p19
sS'msg_reply_to_id_mime'
p20
Fnan
sS'msg_label'
p21
(lp22
VIMPORTANT
p23
aVSENT
p24
asS'msg_cc'
p25
NsS'msg_bcc'
p26
Ns.