(dp1
S'msg_subject'
p2
S''
sS'msg_from'
p3
S'Clara Marquardt <marquardt.clara@gmail.com>'
p4
sS'msg_to'
p5
S'alf zips <alfzips@gmail.com>,\r\n Ulla Marquardt <ulla.marquardt@yahoo.de>'
p6
sS'msg_inbox_outbox'
p7
S'outbox'
p8
sS'msg_id'
p9
V160a1bf084be7f82
p10
sS'msg_threadid'
p11
V160a1bf084be7f82
p12
sS'msg_date'
p13
S'Fri, 29 Dec 2017 04:08:57 -0600'
p14
sS'msg_id_mime'
p15
S'<5311ABD5-AB79-4728-A158-FE15FF4D5BC7@gmail.com>'
p16
sS'msg_text'
p17
S'Hier der neue CV (wegen der Schrift gro\xc3\x9fes) - habe es jetzt erstmal bei 10 gelassen\n'
p18
sS'msg_reply_to_id_mime'
p19
Fnan
sS'msg_label'
p20
(lp21
VIMPORTANT
p22
aVSENT
p23
asS'msg_cc'
p24
NsS'msg_bcc'
p25
Ns.