(dp1
S'msg_subject'
p2
S'Re: NLP questions'
p3
sS'msg_from'
p4
S'Clara Marquardt <marquardt.clara@gmail.com>'
p5
sS'msg_to'
p6
S'Cristian Danescu-Niculescu-Mizil <cristian@cs.cornell.edu>'
p7
sS'msg_inbox_outbox'
p8
S'outbox'
p9
sS'msg_id'
p10
V16022192659dc37a
p11
sS'msg_threadid'
p12
V15f7b037c9219c41
p13
sS'msg_date'
p14
S'Mon, 04 Dec 2017 15:16:01 +0000'
p15
sS'msg_id_mime'
p16
S'<CAC77MjKjBkaZoAjMhVfizBxX9GkcwicG3TpdZ7zmh-yP7dxmzQ@mail.gmail.com>'
p17
sS'msg_text'
p18
S'Hi Cristian,\nThanks so much for your ideas on both questions - super helpful!\nClara\n'
p19
sS'msg_reply_to_id_mime'
p20
S'<CAOZ696jkf_mu4iwh7rVq-Gzsi1DubQnZVNHb_SHYr2BRrqNa8g@mail.gmail.com>'
p21
sS'msg_label'
p22
(lp23
VSENT
p24
asS'msg_cc'
p25
S'Sendhil Mullainathan <sendhil.mullainathan@gmail.com>, \r\n\t"Bec Weeks (weeks.rebecca@gmail.com) (weeks.rebecca@gmail.com)" <weeks.rebecca@gmail.com>'
p26
sS'msg_bcc'
p27
Ns.