(dp1
S'msg_subject'
p2
S'Re: MBA Reference'
p3
sS'msg_from'
p4
S'Clara Marquardt <marquardt.clara@gmail.com>'
p5
sS'msg_to'
p6
S'Narinder Singh <i@narinder.com>'
p7
sS'msg_inbox_outbox'
p8
S'outbox'
p9
sS'msg_id'
p10
V16031f7997949e75
p11
sS'msg_threadid'
p12
V15f93274142b8e2a
p13
sS'msg_date'
p14
S'Thu, 7 Dec 2017 11:13:18 -0600'
p15
sS'msg_id_mime'
p16
S'<CAC77MjJ-9JydtadS9=8=mkLJog--h279Lcc2UqUbs3wkugn41w@mail.gmail.com>'
p17
sS'msg_text'
p18
S'That sounds great - thanks so much!\nClara\n'
p19
sS'msg_reply_to_id_mime'
p20
S'<CAN0c9+nh6HCEJE8cWN25R_p9RWqmcxoioxeTfgxw3DoPh6kd6A@mail.gmail.com>'
p21
sS'msg_label'
p22
(lp23
VIMPORTANT
p24
aVSENT
p25
asS'msg_cc'
p26
NsS'msg_bcc'
p27
Ns.