(dp1
S'msg_subject'
p2
S''
sS'msg_from'
p3
S'Clara Marquardt <marquardt.clara@gmail.com>'
p4
sS'msg_to'
p5
S'alf zips <alfzips@gmail.com>'
p6
sS'msg_inbox_outbox'
p7
S'outbox'
p8
sS'msg_id'
p9
V1606b8548ee295f0
p10
sS'msg_threadid'
p11
V1606b8548ee295f0
p12
sS'msg_date'
p13
S'Mon, 18 Dec 2017 15:26:17 -0600'
p14
sS'msg_id_mime'
p15
S'<7D6271FB-ADD0-40B2-81AF-B592B96DE3CE@gmail.com>'
p16
sS'msg_text'
p17
S'\nletzte paragraph passt einfach nicht nicht. aber 550 W\xc3\xb6rter'
p18
sS'msg_reply_to_id_mime'
p19
Fnan
sS'msg_label'
p20
(lp21
VIMPORTANT
p22
aVSENT
p23
asS'msg_cc'
p24
NsS'msg_bcc'
p25
Ns.