(dp1
S'msg_subject'
p2
S'Re:'
p3
sS'msg_from'
p4
S'Clara Marquardt <marquardt.clara@gmail.com>'
p5
sS'msg_to'
p6
S'Ulla Marquardt <ulla.marquardt@yahoo.de>'
p7
sS'msg_inbox_outbox'
p8
S'outbox'
p9
sS'msg_id'
p10
V160ccd1e674b6d1f
p11
sS'msg_threadid'
p12
V160cae524f17eafa
p13
sS'msg_date'
p14
S'Sat, 6 Jan 2018 12:53:12 -0600'
p15
sS'msg_id_mime'
p16
S'<814CF54E-17A8-479E-B1AF-9189BB1CE6E8@gmail.com>'
p17
sS'msg_text'
p18
S'Danke :) leider glaube ich kann man viele der Sachen die du gestrichen hast nicht streichen : ( : ( \nhuhn sitzt jetzt wieder dran\r'
p19
sS'msg_reply_to_id_mime'
p20
S'<1141616344.2541955.1515258384819@mail.yahoo.com>'
p21
sS'msg_label'
p22
(lp23
VIMPORTANT
p24
aVSENT
p25
asS'msg_cc'
p26
S'alf zips <alfzips@gmail.com>'
p27
sS'msg_bcc'
p28
Ns.