(dp1
S'msg_subject'
p2
S'Fwd: Your trip confirmation-IAWWNP  19JAN'
p3
sS'msg_from'
p4
S'Clara Marquardt <marquardt.clara@gmail.com>'
p5
sS'msg_to'
p6
S'Shreyas Lakhtakia <shreyaslakhtakia@gmail.com>'
p7
sS'msg_inbox_outbox'
p8
S'outbox'
p9
sS'msg_id'
p10
V1610aaf65fc9eb97
p11
sS'msg_threadid'
p12
V1610aaeffe03be55
p13
sS'msg_date'
p14
S'Thu, 18 Jan 2018 13:12:00 -0600'
p15
sS'msg_id_mime'
p16
S'<7B69D8BE-5287-4E18-A92F-8BFECC36A382@gmail.com>'
p17
sS'msg_text'
p18
S'\n'
sS'msg_reply_to_id_mime'
p19
Fnan
sS'msg_label'
p20
(lp21
VSENT
p22
asS'msg_cc'
p23
NsS'msg_bcc'
p24
Ns.