(dp1
S'msg_subject'
p2
S'Re: Paper for discussion today'
p3
sS'msg_from'
p4
S'Clara Marquardt <marquardt.clara@gmail.com>'
p5
sS'msg_to'
p6
S'"Obermeyer, Ziad,M.D.,M.Phil." <ZOBERMEYER@BWH.HARVARD.EDU>'
p7
sS'msg_inbox_outbox'
p8
S'outbox'
p9
sS'msg_id'
p10
V1603fce4020339d1
p11
sS'msg_threadid'
p12
V15ff057d3a40504d
p13
sS'msg_date'
p14
S'Sun, 10 Dec 2017 03:42:46 -0600'
p15
sS'msg_id_mime'
p16
S'<437832AD-3D92-4903-89EF-703EE11BD49B@gmail.com>'
p17
sS'msg_text'
p18
S'Hi Ziad, \nThanks so much for fixing the remote desktop! I have since cleared my browser cookies so we will need to coordinate one more time to authenticate. I will ping you when I next see you on Slack. \nIn terms of time, I have a few deadlines this week but could take 1-2 days the week after (week of the 18th) to make any final changes - let me know if some other time would be better for you. Fingers crossed we can start 2018 with cowbell out of the world (for now). \nClara\n'
p19
sS'msg_reply_to_id_mime'
p20
S'<DM5PR04MB09099807696923FBD870BD7B8F360@DM5PR04MB0909.namprd04.prod.outlook.com>'
p21
sS'msg_label'
p22
(lp23
VIMPORTANT
p24
aVSENT
p25
asS'msg_cc'
p26
NsS'msg_bcc'
p27
Ns.