(dp1
S'msg_subject'
p2
S"Re: You've been invited to an interview for MBA2020 - Round 2"
p3
sS'msg_from'
p4
S'Clara Marquardt <marquardt.clara@gmail.com>'
p5
sS'msg_to'
p6
S'alf zips <alfzips@gmail.com>'
p7
sS'msg_inbox_outbox'
p8
S'outbox'
p9
sS'msg_id'
p10
V1616c39cd97ac96b
p11
sS'msg_threadid'
p12
V161666eb6d60a3b4
p13
sS'msg_date'
p14
S'Tue, 6 Feb 2018 11:46:18 -0600'
p15
sS'msg_id_mime'
p16
S'<E194BB49-6CB6-4217-AF0C-14153C1F7FD7@gmail.com>'
p17
sS'msg_text'
p18
S'Melde dich einfach du Rentner Huhn. Vermisse dich : (\n'
p19
sS'msg_reply_to_id_mime'
p20
S'<CAF34eQHt4mouMA0pgFnhawQxE1rTJ_MX8tYnB_igo_N9t8nnYA@mail.gmail.com>'
p21
sS'msg_label'
p22
(lp23
VIMPORTANT
p24
aVSENT
p25
asS'msg_cc'
p26
NsS'msg_bcc'
p27
Ns.