(dp1
S'msg_subject'
p2
S''
sS'msg_from'
p3
S'Clara Marquardt <marquardt.clara@gmail.com>'
p4
sS'msg_to'
p5
S'Ulla Marquardt <ulla.marquardt@yahoo.de>,\r\n alf zips <alfzips@gmail.com>'
p6
sS'msg_inbox_outbox'
p7
S'outbox'
p8
sS'msg_id'
p9
V160e3c7330af3073
p10
sS'msg_threadid'
p11
V160e3c7330af3073
p12
sS'msg_date'
p13
S'Wed, 10 Jan 2018 23:52:49 -0600'
p14
sS'msg_id_mime'
p15
S'<0CD3D292-037A-4272-909A-9420B07FC886@gmail.com>'
p16
sS'msg_text'
p17
S'\nwenn mann alle comments (e.g. [\xe2\x80\xa6]) wegnimmt dann sind es jetzt 248 W\xc3\xb6rter. Nat\xc3\xbcrlich mehr als was man scheinbar als guter Redner sagt (150-200 W\xc3\xb6rter) aber ich denke - habe es mehr fach probiert - dass dass gehen w\xc3\xbcrde (hatte jedes mal so 1min 2 seconds - ich glaube das ist ok)\nGehe jetzt ins Bett - bin schon wieder m\xc3\xbcde'
p18
sS'msg_reply_to_id_mime'
p19
Fnan
sS'msg_label'
p20
(lp21
VIMPORTANT
p22
aVSENT
p23
asS'msg_cc'
p24
NsS'msg_bcc'
p25
Ns.