(dp1
S'msg_subject'
p2
S'Re: Stockholder consent for the merger'
p3
sS'msg_from'
p4
S'Clara Marquardt <marquardt.clara@gmail.com>'
p5
sS'msg_to'
p6
S'Jacob Trefethen <jacob@pie.video>'
p7
sS'msg_inbox_outbox'
p8
S'outbox'
p9
sS'msg_id'
p10
V16006cffeb14acc9
p11
sS'msg_threadid'
p12
V160052097c93bfde
p13
sS'msg_date'
p14
S'Wed, 29 Nov 2017 09:05:40 +0100'
p15
sS'msg_id_mime'
p16
S'<1BC6A831-8049-47C6-85B4-C6D2D99C64FD@gmail.com>'
p17
sS'msg_text'
p18
S'Hi, \nAttached the signed stockholder consent form. I signed the penultimate page (name and signature but no date) - I also signed the page before (it looked like my signature was needed there). \nLet me know if I missed anything! My flight got cancelled so I will be hanging around the airport for a bit longer than I had hoped to - will check my email. \nSo close!! : ) \nClara\n'
p19
sS'msg_reply_to_id_mime'
p20
S'<36716141-49A9-49BE-A8D5-D05F61CD9215@pie.video>'
p21
sS'msg_label'
p22
(lp23
VSENT
p24
asS'msg_cc'
p25
S'Gui Sabran <gui@pie.video>,\r\n Ceci Mourkogiannis <ceci@pie.video>'
p26
sS'msg_bcc'
p27
Ns.