(dp1
S'msg_subject'
p2
S'Re:'
p3
sS'msg_from'
p4
S'Clara Marquardt <marquardt.clara@gmail.com>'
p5
sS'msg_to'
p6
S'alf zips <alfzips@gmail.com>'
p7
sS'msg_inbox_outbox'
p8
S'outbox'
p9
sS'msg_id'
p10
V1612c4c61790bc40
p11
sS'msg_threadid'
p12
V1612c3325a3600c3
p13
sS'msg_date'
p14
S'Thu, 25 Jan 2018 01:50:57 -0600'
p15
sS'msg_id_mime'
p16
S'<C9E3E101-C2B4-4B1B-A454-D1D0A60CB66C@gmail.com>'
p17
sS'msg_text'
p18
S'; ) : ) : ) \r'
p19
sS'msg_reply_to_id_mime'
p20
S'<CAF34eQGtJDSd5_ZemgP9WTWYZay=DTGddOaSx1EY2L_iVMW2Xg@mail.gmail.com>'
p21
sS'msg_label'
p22
(lp23
VSENT
p24
asS'msg_cc'
p25
NsS'msg_bcc'
p26
Ns.