(dp1
S'msg_subject'
p2
S'Re: Your Whole Foods Market order confirmation'
p3
sS'msg_from'
p4
S'Clara Marquardt <marquardt.clara@gmail.com>'
p5
sS'msg_to'
p6
S'alf zips <alfzips@gmail.com>'
p7
sS'msg_inbox_outbox'
p8
S'outbox'
p9
sS'msg_id'
p10
V160d3cab56550c37
p11
sS'msg_threadid'
p12
V160d2be25e4d9801
p13
sS'msg_date'
p14
S'Sun, 7 Jan 2018 21:22:44 -0600'
p15
sS'msg_id_mime'
p16
S'<83962CBC-9F3B-4F06-83D4-74E5A589E1CA@gmail.com>'
p17
sS'msg_text'
p18
S'Huhn, du bist wirklich ein ganz gro\xc3\x9fartiges super Huhn : ) : )\nalles ist gut angekommen - habe die Beeren schon mit yoghurt verspeist \nich liebe dich und dr\xc3\xbccke dich ganz doll. Ich warte schon auf unseren n\xc3\xa4chstes Segel Abenteuer!\nGanz dicker H\xc3\xbchner k\xc3\xbcss\n'
p19
sS'msg_reply_to_id_mime'
p20
S'<CAF34eQHxqhVJcT-1Ax6L1FJZ9Q-h_VmFH8Rng9a22wBa9akNqA@mail.gmail.com>'
p21
sS'msg_label'
p22
(lp23
VIMPORTANT
p24
aVSENT
p25
asS'msg_cc'
p26
NsS'msg_bcc'
p27
Ns.