(dp1
S'msg_subject'
p2
S''
sS'msg_from'
p3
S'Clara Marquardt <marquardt.clara@gmail.com>'
p4
sS'msg_to'
p5
S'"marquardt.clara@gmail.com" <marquardt.clara@gmail.com>'
p6
sS'msg_inbox_outbox'
p7
S'outbox'
p8
sS'msg_id'
p9
V16148a2910d4047e
p10
sS'msg_threadid'
p11
V16148a2910d4047e
p12
sS'msg_date'
p13
S'Tue, 30 Jan 2018 13:53:35 -0600'
p14
sS'msg_id_mime'
p15
S'<5a70cd74.8f22240a.136c5.114d@mx.google.com>'
p16
sS'msg_text'
p17
S'\nhttps://www.mbamission.com/blog/2017/06/22/university-of-chicago-booth-essay-analysis-2017-2018/\nhttps://blog.accepted.com/who-gets-into-booth-with-the-chicago-approach/\n'
p18
sS'msg_reply_to_id_mime'
p19
Fnan
sS'msg_label'
p20
(lp21
VIMPORTANT
p22
aVSENT
p23
aVINBOX
p24
asS'msg_cc'
p25
NsS'msg_bcc'
p26
Ns.