(dp1
S'msg_subject'
p2
S''
sS'msg_from'
p3
S'Clara Marquardt <marquardt.clara@gmail.com>'
p4
sS'msg_to'
p5
S'Ulla Marquardt <ulla.marquardt@yahoo.de>,\r\n alf zips <alfzips@gmail.com>'
p6
sS'msg_inbox_outbox'
p7
S'outbox'
p8
sS'msg_id'
p9
V160223e8e11df07a
p10
sS'msg_threadid'
p11
V160223e8e11df07a
p12
sS'msg_date'
p13
S'Mon, 4 Dec 2017 09:56:48 -0600'
p14
sS'msg_id_mime'
p15
S'<8BE3B7DE-01DC-44CD-A006-A1B85322F45A@gmail.com>'
p16
sS'msg_text'
p17
S'Hallo - \n \nAttached die neuen Versionen von sloan und booth (MIT lass ich erstmal da sp\xc3\xa4ter due (Januar 17th)) - habe bis jetzt nur angefangen die essays zu \xc3\xbcberarbeiten (LBS schon mehr Booth ist noch sehr am Anfang) - an den SAQ (short answer questions) arbeite ich w\xc3\xa4hren der Woche.\n'
p18
sS'msg_reply_to_id_mime'
p19
Fnan
sS'msg_label'
p20
(lp21
VIMPORTANT
p22
aVSENT
p23
asS'msg_cc'
p24
NsS'msg_bcc'
p25
Ns.