(dp1
S'msg_subject'
p2
S'RE: Application Research Assistant for a Project on\n GenderBiasandMachine Learning'
p3
sS'msg_from'
p4
S'Clara Marquardt <marquardt.clara@gmail.com>'
p5
sS'msg_to'
p6
S'"Unverzagt, Eric" <eunverz@fas.harvard.edu>'
p7
sS'msg_inbox_outbox'
p8
S'outbox'
p9
sS'msg_id'
p10
V1600e5528c20313e
p11
sS'msg_threadid'
p12
V1600d5d7d7b05666
p13
sS'msg_date'
p14
S'Thu, 30 Nov 2017 13:07:32 -0600'
p15
sS'msg_id_mime'
p16
S'<5a205756.67846b0a.74a54.e505@mx.google.com>'
p17
sS'msg_text'
p18
S'Haha : )\nSent from Mail for Windows 10\n'
p19
sS'msg_reply_to_id_mime'
p20
S' <SN4PR0701MB3648F00AEB9F8B48C98E687CE5380@SN4PR0701MB3648.namprd07.prod.outlook.com>'
p21
sS'msg_label'
p22
(lp23
VSENT
p24
asS'msg_cc'
p25
NsS'msg_bcc'
p26
Ns.