(dp1
S'msg_subject'
p2
S'Re:'
p3
sS'msg_from'
p4
S'Clara Marquardt <marquardt.clara@gmail.com>'
p5
sS'msg_to'
p6
S'"ulla.marquardt@yahoo.de" <ulla.marquardt@yahoo.de>,\r\n Alf Zips <alfzips@gmail.com>'
p7
sS'msg_inbox_outbox'
p8
S'outbox'
p9
sS'msg_id'
p10
V1614d948987cd31e
p11
sS'msg_threadid'
p12
V1614c02f2a8dbd98
p13
sS'msg_date'
p14
S'Wed, 31 Jan 2018 12:57:12 -0600'
p15
sS'msg_id_mime'
p16
S'<63BB0A12-F12F-457D-9508-42D9E4C50EB9@gmail.com>'
p17
sS'msg_text'
p18
S'danke fuer feedback - werde incorperieren !! ich finde den essay jetzt auch besser : )\n'
p19
sS'msg_reply_to_id_mime'
p20
S'<501679646.581413.1517417931440@mail.yahoo.com>'
p21
sS'msg_label'
p22
(lp23
VSENT
p24
asS'msg_cc'
p25
NsS'msg_bcc'
p26
Ns.