(dp1
S'msg_subject'
p2
S'Re:'
p3
sS'msg_from'
p4
S'Clara Marquardt <marquardt.clara@gmail.com>'
p5
sS'msg_to'
p6
S'alf zips <alfzips@gmail.com>'
p7
sS'msg_inbox_outbox'
p8
S'outbox'
p9
sS'msg_id'
p10
V15ffdc4caa78f1d2
p11
sS'msg_threadid'
p12
V15ff00bd33867a90
p13
sS'msg_date'
p14
S'Mon, 27 Nov 2017 14:57:32 +0100'
p15
sS'msg_id_mime'
p16
S'<1719AA12-9239-4551-9467-CD1C034C7A82@gmail.com>'
p17
sS'msg_text'
p18
S'Hast bestimmt auf dem Klo spiele gespielt \r'
p19
sS'msg_reply_to_id_mime'
p20
S'<CAF34eQECwtkZi20Dq7b3Vz5+0+5kRu85hfnmOOS4deK3GtPTpg@mail.gmail.com>'
p21
sS'msg_label'
p22
(lp23
VIMPORTANT
p24
aVSENT
p25
asS'msg_cc'
p26
NsS'msg_bcc'
p27
Ns.