(dp1
S'msg_subject'
p2
S'Re:'
p3
sS'msg_from'
p4
S'Clara Marquardt <marquardt.clara@gmail.com>'
p5
sS'msg_to'
p6
S'alf zips <alfzips@gmail.com>'
p7
sS'msg_inbox_outbox'
p8
S'outbox'
p9
sS'msg_id'
p10
V160e286fd02e6433
p11
sS'msg_threadid'
p12
V160e21e3c8e2e543
p13
sS'msg_date'
p14
S'Wed, 10 Jan 2018 18:03:03 -0600'
p15
sS'msg_id_mime'
p16
S'<20351505-4ED2-4294-B70E-6A57D6666C7F@gmail.com>'
p17
sS'msg_text'
p18
S'DANKE!!!!\r'
p19
sS'msg_reply_to_id_mime'
p20
S'<CAF34eQGssybZZtm4KAL3+k2ukK0dX+VWtFSgPKqZmP4mQaeQRg@mail.gmail.com>'
p21
sS'msg_label'
p22
(lp23
VSENT
p24
asS'msg_cc'
p25
NsS'msg_bcc'
p26
Ns.