(dp1
S'msg_subject'
p2
S'Re: [Confidential] Pie News'
p3
sS'msg_from'
p4
S'Clara Marquardt <marquardt.clara@gmail.com>'
p5
sS'msg_to'
p6
S'Guillaume Sabran <gui@pie.video>'
p7
sS'msg_inbox_outbox'
p8
S'outbox'
p9
sS'msg_id'
p10
V1603c7a91493fa53
p11
sS'msg_threadid'
p12
V15ecaf4b5a3007b5
p13
sS'msg_date'
p14
S'Sat, 9 Dec 2017 12:12:30 -0600'
p15
sS'msg_id_mime'
p16
S'<3C10CB6F-DDBF-41B7-ACA7-02565F095CD1@gmail.com>'
p17
sS'msg_text'
p18
S'That sounds amazing! February will be a bit crazy for me - March/April would be perfect : )\n'
p19
sS'msg_reply_to_id_mime'
p20
S'<CAJWGYZZPn1_2WRZkc2ir1ymgEX_Zh5Qw_4_Z+OHgMg+rH22eXw@mail.gmail.com>'
p21
sS'msg_label'
p22
(lp23
VIMPORTANT
p24
aVSENT
p25
asS'msg_cc'
p26
S'Ceci Mourkogiannis <ceci@pie.video>,\r\n Jacob Trefethen <jacob@pie.video>'
p27
sS'msg_bcc'
p28
Ns.