(dp1
S'msg_subject'
p2
S''
sS'msg_from'
p3
S'Clara Marquardt <marquardt.clara@gmail.com>'
p4
sS'msg_to'
p5
S'marquardt.clara@gmail.com'
p6
sS'msg_inbox_outbox'
p7
S'outbox'
p8
sS'msg_id'
p9
V160972a1f74fd0c9
p10
sS'msg_threadid'
p11
V160972a1f74fd0c9
p12
sS'msg_date'
p13
S'Wed, 27 Dec 2017 02:50:08 -0600'
p14
sS'msg_id_mime'
p15
S'<CAC77MjL2kQ08F2YO=ACENEmSZ_6Aw1hyA-2_KwnTC6bhdHL8_w@mail.gmail.com>'
p16
sS'msg_text'
p17
S'\n'
sS'msg_reply_to_id_mime'
p18
Fnan
sS'msg_label'
p19
(lp20
VIMPORTANT
p21
aVSENT
p22
aVINBOX
p23
asS'msg_cc'
p24
NsS'msg_bcc'
p25
Ns.