(dp1
S'msg_subject'
p2
S''
sS'msg_from'
p3
S'Clara Marquardt <marquardt.clara@gmail.com>'
p4
sS'msg_to'
p5
S'Ulla Marquardt <ulla.marquardt@yahoo.de>,\r\n alf zips <alfzips@gmail.com>'
p6
sS'msg_inbox_outbox'
p7
S'outbox'
p8
sS'msg_id'
p9
V160a71c0a032bb91
p10
sS'msg_threadid'
p11
V160a71c0a032bb91
p12
sS'msg_date'
p13
S'Sat, 30 Dec 2017 05:07:19 -0600'
p14
sS'msg_id_mime'
p15
S'<FC21FF32-1129-4C74-8F01-53CEF376A07E@gmail.com>'
p16
sS'msg_text'
p17
S'Hallo - huhn ist heute nicht wirklich weiter gekommen : ( : ( have viel ge\xc3\xa4ndert um dann das meiste wieder zu verwenden \nAttached der lbs essay, der booth essay (und der optional essay fuer booth). Feedback w\xc3\xa4re besonders fuer booth hilfreich (und den LBS Anfang). \nProblem mit booth - bin jetzt bei ~ 1180 W\xc3\xb6rtern : ( : (\n'
p18
sS'msg_reply_to_id_mime'
p19
Fnan
sS'msg_label'
p20
(lp21
VIMPORTANT
p22
aVSENT
p23
asS'msg_cc'
p24
NsS'msg_bcc'
p25
Ns.