(dp1
S'msg_subject'
p2
S'Re: Connecting you with Clara - gender bias app'
p3
sS'msg_from'
p4
S'Clara Marquardt <marquardt.clara@gmail.com>'
p5
sS'msg_to'
p6
S'Cameron Cohen <cameron_cohen@college.harvard.edu>'
p7
sS'msg_inbox_outbox'
p8
S'outbox'
p9
sS'msg_id'
p10
V15fe4dc6ea1edcd1
p11
sS'msg_threadid'
p12
V15fd94f6ccdcbbd1
p13
sS'msg_date'
p14
S'Wed, 22 Nov 2017 11:52:51 -0600'
p15
sS'msg_id_mime'
p16
S'<B67BC94F-5352-4438-9943-E47D8713CA50@gmail.com>'
p17
sS'msg_text'
p18
S'Hi Cameron, \nWas just about to email you! Skype would be great - my internet is not great but without video we should be fine \nMy Skye ID: claramarquardt\nClara\n'
p19
sS'msg_reply_to_id_mime'
p20
S'<5a15b8b7e5295500010a721b@polymail.io>'
p21
sS'msg_label'
p22
(lp23
VSENT
p24
asS'msg_cc'
p25
NsS'msg_bcc'
p26
Ns.