(dp1
S'msg_subject'
p2
S'Re:'
p3
sS'msg_from'
p4
S'Clara Marquardt <marquardt.clara@gmail.com>'
p5
sS'msg_to'
p6
S'alf zips <alfzips@gmail.com>'
p7
sS'msg_inbox_outbox'
p8
S'outbox'
p9
sS'msg_id'
p10
V160a489f888c2bee
p11
sS'msg_threadid'
p12
V160a1bf084be7f82
p13
sS'msg_date'
p14
S'Fri, 29 Dec 2017 17:09:50 -0600'
p15
sS'msg_id_mime'
p16
S'<44F2BD62-198F-47A3-9C3D-85CEA1F0BB51@gmail.com>'
p17
sS'msg_text'
p18
S'DANKE HERKULES!! \nschicke dir heute abend neue version mit deinen Vorschl\xc3\xa4gen inkorporiert : ) : )\n'
p19
sS'msg_reply_to_id_mime'
p20
S'<CAF34eQGLE0ERYnma39q6vcsYnPMsM6sUzQQxrxiKXWp-DOBF4w@mail.gmail.com>'
p21
sS'msg_label'
p22
(lp23
VSENT
p24
asS'msg_cc'
p25
NsS'msg_bcc'
p26
Ns.