(dp1
S'msg_subject'
p2
S'Fwd: [sysmedlab/ehR] group_race() bug (#1)'
p3
sS'msg_from'
p4
S'Clara Marquardt <marquardt.clara@gmail.com>'
p5
sS'msg_to'
p6
S'"Lakhtakia, Shreyas" <slakhtakia@bwh.harvard.edu>'
p7
sS'msg_inbox_outbox'
p8
S'outbox'
p9
sS'msg_id'
p10
V160b8b6559552efe
p11
sS'msg_threadid'
p12
V160b8ae9e97cf49d
p13
sS'msg_date'
p14
S'Tue, 2 Jan 2018 15:10:43 -0600'
p15
sS'msg_id_mime'
p16
S'<1D9CDEEB-87A5-48BD-AEAE-D5065145407A@gmail.com>'
p17
sS'msg_text'
p18
S'lol - where did this suddenly come from\n'
p19
sS'msg_reply_to_id_mime'
p20
Fnan
sS'msg_label'
p21
(lp22
VIMPORTANT
p23
aVSENT
p24
asS'msg_cc'
p25
NsS'msg_bcc'
p26
Ns.