(dp1
S'msg_subject'
p2
S''
sS'msg_from'
p3
S'Clara Marquardt <marquardt.clara@gmail.com>'
p4
sS'msg_to'
p5
S'"marquardt.clara@gmail.com" <marquardt.clara@gmail.com>'
p6
sS'msg_inbox_outbox'
p7
S'outbox'
p8
sS'msg_id'
p9
V161529277dafa8e8
p10
sS'msg_threadid'
p11
V161529277dafa8e8
p12
sS'msg_date'
p13
S'Thu, 1 Feb 2018 12:12:14 -0600'
p14
sS'msg_id_mime'
p15
S'<5a7358b2.8c4a240a.ea4b3.1917@mx.google.com>'
p16
sS'msg_text'
p17
S'\nSent from Mail for Windows 10\nI like I wish what if\n'
p18
sS'msg_reply_to_id_mime'
p19
Fnan
sS'msg_label'
p20
(lp21
VIMPORTANT
p22
aVSENT
p23
aVINBOX
p24
asS'msg_cc'
p25
NsS'msg_bcc'
p26
Ns.