(dp1
S'msg_subject'
p2
S'Re: Chatting about LBS'
p3
sS'msg_from'
p4
S'Clara Marquardt <marquardt.clara@gmail.com>'
p5
sS'msg_to'
p6
S'Isaac Gross <isaac.gross@gmail.com>'
p7
sS'msg_inbox_outbox'
p8
S'outbox'
p9
sS'msg_id'
p10
V161587f840f9337f
p11
sS'msg_threadid'
p12
V161585b503709b1e
p13
sS'msg_date'
p14
S'Fri, 2 Feb 2018 15:50:00 -0600'
p15
sS'msg_id_mime'
p16
S'<D8E8B115-307B-480F-9080-166FE6296FC8@gmail.com>'
p17
sS'msg_text'
p18
S'Perfect and my apologies for the time-zone confusion  - I just came back from London and have become too used to framing everything relative to London time!\nDepending on what works best for you we could do Skype (I am at claramarquardt) or phone (I am at 857-204-4689).\nMany thanks again and I am excited to speak next Friday, \nClara\n'
p19
sS'msg_reply_to_id_mime'
p20
S'<CAP2-O2fwX+hEZzHf8DvVqFN9LH0sPBa4gSOO6gFz4_U537ri_A@mail.gmail.com>'
p21
sS'msg_label'
p22
(lp23
VIMPORTANT
p24
aVSENT
p25
asS'msg_cc'
p26
NsS'msg_bcc'
p27
Ns.