(dp1
S'msg_subject'
p2
S''
sS'msg_from'
p3
S'Clara Marquardt <marquardt.clara@gmail.com>'
p4
sS'msg_to'
p5
S'alf zips <alfzips@gmail.com>'
p6
sS'msg_inbox_outbox'
p7
S'outbox'
p8
sS'msg_id'
p9
V161863f64ed577d3
p10
sS'msg_threadid'
p11
V161863f64ed577d3
p12
sS'msg_date'
p13
S'Sun, 11 Feb 2018 13:02:35 -0600'
p14
sS'msg_id_mime'
p15
S'<D720824E-7F2E-45E1-BBD6-2C64C18E6B8D@gmail.com>'
p16
sS'msg_text'
p17
S'Huhn, \nHeute ist dein MBA test anbekommen : ) : ) : ) DANKE  - du bist so ein tolles huenchen : ) Puzzle war schwieriger als erwartet - habe zeitweise gedacht du hast die einen Witz gemacht und teile weggelassen. \nHabe mich ganz riesig gefreut - du bist ein ganz tolles H\xc3\xbchner Vorbild : )\n'
p18
sS'msg_reply_to_id_mime'
p19
Fnan
sS'msg_label'
p20
(lp21
VIMPORTANT
p22
aVSENT
p23
asS'msg_cc'
p24
NsS'msg_bcc'
p25
Ns.