(dp1
S'msg_subject'
p2
S'Re: Chatting about LBS'
p3
sS'msg_from'
p4
S'Clara Marquardt <marquardt.clara@gmail.com>'
p5
sS'msg_to'
p6
S'Christoph Mueller <cmueller.mba2019@london.edu>'
p7
sS'msg_inbox_outbox'
p8
S'outbox'
p9
sS'msg_id'
p10
V1619d4adfc3d733d
p11
sS'msg_threadid'
p12
V161671e529511d7a
p13
sS'msg_date'
p14
S'Fri, 16 Feb 2018 00:26:22 -0600'
p15
sS'msg_id_mime'
p16
S'<B08267DC-5AFE-44A6-B6CE-CCAC673A3359@gmail.com>'
p17
sS'msg_text'
p18
S': ) Thank you!!\n'
p19
sS'msg_reply_to_id_mime'
p20
S'<DB5PR03MB1398ECA12A6BB24E6EDF3D94EBF40@DB5PR03MB1398.eurprd03.prod.outlook.com>'
p21
sS'msg_label'
p22
(lp23
VSENT
p24
asS'msg_cc'
p25
NsS'msg_bcc'
p26
Ns.