(dp1
S'msg_subject'
p2
S''
sS'msg_from'
p3
S'Clara Marquardt <marquardt.clara@gmail.com>'
p4
sS'msg_to'
p5
S'Clara Marquardt <marquardt.clara@gmail.com>'
p6
sS'msg_inbox_outbox'
p7
S'outbox'
p8
sS'msg_id'
p9
V1614a04499bb1859
p10
sS'msg_threadid'
p11
V1614661d057338f8
p12
sS'msg_date'
p13
S'Tue, 30 Jan 2018 20:20:50 -0600'
p14
sS'msg_id_mime'
p15
S'<CAC77Mj+8-eGiPmpSN7F+oxbdJGjXMfwmu_6KbfnUPtFcHNWmSQ@mail.gmail.com>'
p16
sS'msg_text'
p17
S"Talk to an\n- D'S vis love to design, visualize ideas\n- what works city campaign\n- creative confidence ideo news e.g. ideo + data -\nhttps://www.fastcodesign.com/90147010/exclusive-ideos-plan\n-to-stage-an-ai-revolution\n- add Megan to design thinking\n"
p18
sS'msg_reply_to_id_mime'
p19
S'<CAC77Mj+eTTePOLij6E5kC8ypmgHRBg-CKwXT0FfktKtJBxkAPA@mail.gmail.com>'
p20
sS'msg_label'
p21
(lp22
VIMPORTANT
p23
aVSENT
p24
aVINBOX
p25
asS'msg_cc'
p26
NsS'msg_bcc'
p27
Ns.