(dp1
S'msg_subject'
p2
S'Re: Chatting about Sloan'
p3
sS'msg_from'
p4
S'Clara Marquardt <marquardt.clara@gmail.com>'
p5
sS'msg_to'
p6
S'Lara Ortiz-Luis <lyortizluis@gmail.com>'
p7
sS'msg_inbox_outbox'
p8
S'outbox'
p9
sS'msg_id'
p10
V160e35a1165bde2a
p11
sS'msg_threadid'
p12
V160de66ec293d480
p13
sS'msg_date'
p14
S'Wed, 10 Jan 2018 21:53:37 -0600'
p15
sS'msg_id_mime'
p16
S'<B660EAA7-3F63-45B1-9DB6-AFA71FBDC945@gmail.com>'
p17
sS'msg_text'
p18
S'Perfect! How about 9am, 10am or 11am Sydney time on the 19th? Earlier or later would also work. \nClara\n'
p19
sS'msg_reply_to_id_mime'
p20
S'<CAPTB0rzwrYNH3OT3eStDXmk6aTAMBzeT7uM+5E6UWphhhbJ7yQ@mail.gmail.com>'
p21
sS'msg_label'
p22
(lp23
VIMPORTANT
p24
aVSENT
p25
asS'msg_cc'
p26
NsS'msg_bcc'
p27
Ns.