(dp1
S'msg_subject'
p2
S''
sS'msg_from'
p3
S'Clara Marquardt <marquardt.clara@gmail.com>'
p4
sS'msg_to'
p5
S'alf zips <alfzips@gmail.com>,\r\n Ulla Marquardt <ulla.marquardt@yahoo.de>'
p6
sS'msg_inbox_outbox'
p7
S'outbox'
p8
sS'msg_id'
p9
V160c036e830c596b
p10
sS'msg_threadid'
p11
V160c036e830c596b
p12
sS'msg_date'
p13
S'Thu, 4 Jan 2018 02:08:31 -0600'
p14
sS'msg_id_mime'
p15
S'<284CC4B1-E680-4D57-9B5F-3B15A9D7D925@gmail.com>'
p16
sS'msg_text'
p17
S'Tut mir leid dass ich mich erst jetzt melde\xe2\x80\xa6. \nWar gestern abend dann doch etwas erschoepft als ich die 2 essays endlich abgegeben habe. Habe den tag gebraucht um all meine sorgen, etc. zu verarbeiten - es ist jetzt so wie es ist. \nAm Wochenende mache ich dann mit MIT weiter. \nGANZ GANZ vielen dank euch beiden fuer all die Hilfe, Geduld und die emotionalle Unterst\xc3\xbctzung bei dieser ganzen Sache : ) : ) noch 2 Wochen und dann ist auch gut. Auch wenn kein MBA - ich denke mal der reflections Prozess, cv, etc. war auf jedenfall super hilfreich. \neuer Huhn'
p18
sS'msg_reply_to_id_mime'
p19
Fnan
sS'msg_label'
p20
(lp21
VIMPORTANT
p22
aVSENT
p23
asS'msg_cc'
p24
NsS'msg_bcc'
p25
Ns.