(dp1
S'msg_subject'
p2
S'Chatting about Sloan'
p3
sS'msg_from'
p4
S'Clara Marquardt <marquardt.clara@gmail.com>'
p5
sS'msg_to'
p6
S'jrjohns@mit.edu'
p7
sS'msg_inbox_outbox'
p8
S'outbox'
p9
sS'msg_id'
p10
V160e74917f570ebf
p11
sS'msg_threadid'
p12
V160e74917f570ebf
p13
sS'msg_date'
p14
S'Thu, 11 Jan 2018 16:13:30 -0600'
p15
sS'msg_id_mime'
p16
S'<B9050798-198C-4103-A886-8DE3F825A1B0@gmail.com>'
p17
sS'msg_text'
p18
S'Hi Jared, \nI had previously reached out to you on LinkedIn - many thanks for getting back to me so quickly!\nWould sometime next week starting Thursday, or any day the week after work for you? I am very flexible, so please let me know what date/time would work best for you!\nMy phone number is 857 204 4689. \nI look forward to speaking with you soon, \nClara'
p19
sS'msg_reply_to_id_mime'
p20
Fnan
sS'msg_label'
p21
(lp22
VIMPORTANT
p23
aVSENT
p24
asS'msg_cc'
p25
NsS'msg_bcc'
p26
Ns.