(dp1
S'msg_subject'
p2
S'RE: Your Whole Foods Market order confirmation'
p3
sS'msg_from'
p4
S'Clara Marquardt <marquardt.clara@gmail.com>'
p5
sS'msg_to'
p6
S'alf zips <alfzips@gmail.com>'
p7
sS'msg_inbox_outbox'
p8
S'outbox'
p9
sS'msg_id'
p10
V160dc958d774b857
p11
sS'msg_threadid'
p12
V160d2be25e4d9801
p13
sS'msg_date'
p14
S'Tue, 9 Jan 2018 14:20:06 -0600'
p15
sS'msg_id_mime'
p16
S'<5a55243c.5069240a.5b05c.1823@mx.google.com>'
p17
sS'msg_text'
p18
S'\nSent from Mail for Windows 10\n'
p19
sS'msg_reply_to_id_mime'
p20
S' <CAF34eQFVDxRivorPjAmyS1JQC5KDRT86_01N98qyfW4ELTjMpg@mail.gmail.com>'
p21
sS'msg_label'
p22
(lp23
VSENT
p24
asS'msg_cc'
p25
NsS'msg_bcc'
p26
Ns.