(dp1
S'msg_subject'
p2
S'Re: Applicant - Research Assistant for a Project on Gender Bias and\n Machine Learning'
p3
sS'msg_from'
p4
S'Clara Marquardt <marquardt.clara@gmail.com>'
p5
sS'msg_to'
p6
S'"Unverzagt, Eric" <eunverz@fas.harvard.edu>'
p7
sS'msg_inbox_outbox'
p8
S'outbox'
p9
sS'msg_id'
p10
V1614df73449f4668
p11
sS'msg_threadid'
p12
V1614df3df8281cbe
p13
sS'msg_date'
p14
S'Wed, 31 Jan 2018 14:44:59 -0600'
p15
sS'msg_id_mime'
p16
S'<3DBB5E22-2F1C-4832-B97E-502E7E6127C3@gmail.com>'
p17
sS'msg_text'
p18
S'Will do - thanks for forwarding!\nBest wishes, \nClara\n'
p19
sS'msg_reply_to_id_mime'
p20
S'<SN2PR07MB2494484898CCF78A62A3795FE5FB0@SN2PR07MB2494.namprd07.prod.outlook.com>'
p21
sS'msg_label'
p22
(lp23
VIMPORTANT
p24
aVSENT
p25
asS'msg_cc'
p26
NsS'msg_bcc'
p27
Ns.