(dp1
S'msg_subject'
p2
S''
sS'msg_from'
p3
S'Clara Marquardt <marquardt.clara@gmail.com>'
p4
sS'msg_to'
p5
S'alf zips <alfzips@gmail.com>'
p6
sS'msg_inbox_outbox'
p7
S'outbox'
p8
sS'msg_id'
p9
V160b1abf784d2bb3
p10
sS'msg_threadid'
p11
V160b1abf784d2bb3
p12
sS'msg_date'
p13
S'Mon, 1 Jan 2018 06:22:02 -0600'
p14
sS'msg_id_mime'
p15
S'<044CF521-57CA-4E49-9EE3-E06AF1D03896@gmail.com>'
p16
sS'msg_text'
p17
S'herkules - hier der neue cv. melde dich morgen einfach wenn du zeit hast\ngan viele H\xc3\xbchner Keese\n'
p18
sS'msg_reply_to_id_mime'
p19
Fnan
sS'msg_label'
p20
(lp21
VSENT
p22
asS'msg_cc'
p23
NsS'msg_bcc'
p24
Ns.