(dp1
S'msg_subject'
p2
S'RE: deine website'
p3
sS'msg_from'
p4
S'Clara Marquardt <marquardt.clara@gmail.com>'
p5
sS'msg_to'
p6
S'Ulla Marquardt <ulla.marquardt@yahoo.de>'
p7
sS'msg_inbox_outbox'
p8
S'outbox'
p9
sS'msg_id'
p10
V1600e36472861efa
p11
sS'msg_threadid'
p12
V1600bef153a4a006
p13
sS'msg_date'
p14
S'Thu, 30 Nov 2017 12:33:48 -0600'
p15
sS'msg_id_mime'
p16
S'<5a204f6e.08db240a.c8a78.ddf7@mx.google.com>'
p17
sS'msg_text'
p18
S'GANZ vielen dank fuer ganz tolles feedback --- super hilfreich : ) werde alles umsetzen\nSent from Mail for Windows 10\n'
p19
sS'msg_reply_to_id_mime'
p20
S'<791916473.9072171.1512028701834@mail.yahoo.com>'
p21
sS'msg_label'
p22
(lp23
VIMPORTANT
p24
aVSENT
p25
asS'msg_cc'
p26
NsS'msg_bcc'
p27
Ns.