(dp1
S'msg_subject'
p2
S"Re: You've been invited to an interview for MBA2020 - Round 2"
p3
sS'msg_from'
p4
S'Clara Marquardt <marquardt.clara@gmail.com>'
p5
sS'msg_to'
p6
S'alf zips <alfzips@gmail.com>'
p7
sS'msg_inbox_outbox'
p8
S'outbox'
p9
sS'msg_id'
p10
V16167bcbed0a3b96
p11
sS'msg_threadid'
p12
V161666eb6d60a3b4
p13
sS'msg_date'
p14
S'Mon, 5 Feb 2018 14:51:16 -0600'
p15
sS'msg_id_mime'
p16
S'<83F77583-E5CD-441E-9F92-C5A997A3989D@gmail.com>'
p17
sS'msg_text'
p18
S'Danke herkules.Da hast du wohl recht : )  : ) \r'
p19
sS'msg_reply_to_id_mime'
p20
S'<CAF34eQEPbqPf1xCmG1xwus6usYeL-mtc_FcbgAvcAv8ggG_xEg@mail.gmail.com>'
p21
sS'msg_label'
p22
(lp23
VIMPORTANT
p24
aVSENT
p25
asS'msg_cc'
p26
NsS'msg_bcc'
p27
Ns.