(dp1
S'msg_subject'
p2
S''
sS'msg_from'
p3
S'Clara Marquardt <marquardt.clara@gmail.com>'
p4
sS'msg_to'
p5
S'Alf Zips neu <alf.zips@gmail.com>'
p6
sS'msg_inbox_outbox'
p7
S'outbox'
p8
sS'msg_id'
p9
V160ed7dc05ba4b33
p10
sS'msg_threadid'
p11
V160ed7dc05ba4b33
p12
sS'msg_date'
p13
S'Fri, 12 Jan 2018 21:08:49 -0600'
p14
sS'msg_id_mime'
p15
S'<CAC77MjK+z4AJ5ze9t4cnxbG6FeA6PUi6i7M+mvCaHAes4Wxnwg@mail.gmail.com>'
p16
sS'msg_text'
p17
S'\n'
sS'msg_reply_to_id_mime'
p18
Fnan
sS'msg_label'
p19
(lp20
VIMPORTANT
p21
aVSENT
p22
asS'msg_cc'
p23
NsS'msg_bcc'
p24
Ns.