(dp1
S'msg_subject'
p2
S''
sS'msg_from'
p3
S'Clara Marquardt <marquardt.clara@gmail.com>'
p4
sS'msg_to'
p5
S'Alf Zips neu <alf.zips@gmail.com>'
p6
sS'msg_inbox_outbox'
p7
S'outbox'
p8
sS'msg_id'
p9
V1612c378fe537f8e
p10
sS'msg_threadid'
p11
V1612c3325a3600c3
p12
sS'msg_date'
p13
S'Thu, 25 Jan 2018 01:28:14 -0600'
p14
sS'msg_id_mime'
p15
S'<CAC77MjJxpGWpHLJBhASvR2q4zcJttGJ=RUtwMWzN_m5C2FYuHg@mail.gmail.com>'
p16
sS'msg_text'
p17
S'Huehnerland \xf0\x9f\x98\x99\xf0\x9f\x98\x99\nWie du siehst ist die neuste H\xc3\xbchner Karte in guter Gesellschaft\n'
p18
sS'msg_reply_to_id_mime'
p19
S'<CAC77MjLUqTdKr-2dNH=O_qwOcaoZHaLF726jcKc+1Q1fqA+UHA@mail.gmail.com>'
p20
sS'msg_label'
p21
(lp22
VIMPORTANT
p23
aVSENT
p24
asS'msg_cc'
p25
NsS'msg_bcc'
p26
Ns.