(dp1
S'msg_subject'
p2
S'Re: MBA Reference'
p3
sS'msg_from'
p4
S'Clara Marquardt <marquardt.clara@gmail.com>'
p5
sS'msg_to'
p6
S'Narinder Singh <i@narinder.com>'
p7
sS'msg_inbox_outbox'
p8
S'outbox'
p9
sS'msg_id'
p10
V15fa9e10c4bbb63d
p11
sS'msg_threadid'
p12
V15f93274142b8e2a
p13
sS'msg_date'
p14
S'Sat, 11 Nov 2017 01:00:18 -0600'
p15
sS'msg_id_mime'
p16
S'<DE2DB951-90B6-4C21-9419-E14FE3D467C7@gmail.com>'
p17
sS'msg_text'
p18
S'Thank you!\n'
p19
sS'msg_reply_to_id_mime'
p20
S'<CAN0c9+nDCr215Goy=y_Ebb+12euEYv1EES1N8pnxgaUc5bewgg@mail.gmail.com>'
p21
sS'msg_label'
p22
(lp23
VIMPORTANT
p24
aVSENT
p25
asS'msg_cc'
p26
NsS'msg_bcc'
p27
Ns.