(dp1
S'msg_subject'
p2
S'=?utf-8?Q?Re=3A_Text_Pr=C3=A4sentation_Video?='
p3
sS'msg_from'
p4
S'Clara Marquardt <marquardt.clara@gmail.com>'
p5
sS'msg_to'
p6
S'Ulla Marquardt <ulla.marquardt@yahoo.de>'
p7
sS'msg_inbox_outbox'
p8
S'outbox'
p9
sS'msg_id'
p10
V160db21917f711ff
p11
sS'msg_threadid'
p12
V160db17541790a32
p13
sS'msg_date'
p14
S'Tue, 9 Jan 2018 07:34:54 -0600'
p15
sS'msg_id_mime'
p16
S'<40B74EFC-6A71-4CD3-BF4E-3A07E282C15F@gmail.com>'
p17
sS'msg_text'
p18
S'Danke :) Ich denk dr\xc3\xbcber nach\n'
p19
sS'msg_reply_to_id_mime'
p20
S'<1158258554.5468537.1515504222088@mail.yahoo.com>'
p21
sS'msg_label'
p22
(lp23
VSENT
p24
asS'msg_cc'
p25
S'Alf Zips <alfzips@gmail.com>'
p26
sS'msg_bcc'
p27
Ns.