(dp1
S'msg_subject'
p2
S"Re: You've been invited to an interview for MBA2020 - Round 2"
p3
sS'msg_from'
p4
S'Clara Marquardt <marquardt.clara@gmail.com>'
p5
sS'msg_to'
p6
S'Ulla Marquardt <ulla.marquardt@yahoo.de>'
p7
sS'msg_inbox_outbox'
p8
S'outbox'
p9
sS'msg_id'
p10
V1616ef26dce4d69c
p11
sS'msg_threadid'
p12
V161666eb6d60a3b4
p13
sS'msg_date'
p14
S'Wed, 7 Feb 2018 00:27:15 -0600'
p15
sS'msg_id_mime'
p16
S'<174835D7-9ED5-4DE7-979B-26870FBE86E1@gmail.com>'
p17
sS'msg_text'
p18
S'danke tiger !! schaue ich mir n\xc3\xa4chster Woche an : )\n'
p19
sS'msg_reply_to_id_mime'
p20
S'<404068827.6989145.1517947886937@mail.yahoo.com>'
p21
sS'msg_label'
p22
(lp23
VIMPORTANT
p24
aVSENT
p25
asS'msg_cc'
p26
S'alf zips <alfzips@gmail.com>'
p27
sS'msg_bcc'
p28
Ns.