(dp1
S'msg_subject'
p2
S'Re:'
p3
sS'msg_from'
p4
S'Clara Marquardt <marquardt.clara@gmail.com>'
p5
sS'msg_to'
p6
S'Shreyas Lakhtakia <shreyaslakhtakia@gmail.com>'
p7
sS'msg_inbox_outbox'
p8
S'outbox'
p9
sS'msg_id'
p10
V160b9eaa6575ccca
p11
sS'msg_threadid'
p12
V160b9d6893965689
p13
sS'msg_date'
p14
S'Tue, 2 Jan 2018 20:47:30 -0600'
p15
sS'msg_id_mime'
p16
S'<F1CF6503-81BB-4646-B0B7-EA003C28D006@gmail.com>'
p17
sS'msg_text'
p18
S'Thank you!!!\r'
p19
sS'msg_reply_to_id_mime'
p20
S'<CALEjPT8zcHEGuH=TrYdgiNUhxAtGgY_e1WoMF_tjoFqGRuBA7w@mail.gmail.com>'
p21
sS'msg_label'
p22
(lp23
VSENT
p24
asS'msg_cc'
p25
NsS'msg_bcc'
p26
Ns.