(dp1
S'msg_subject'
p2
S'Re:'
p3
sS'msg_from'
p4
S'Clara Marquardt <marquardt.clara@gmail.com>'
p5
sS'msg_to'
p6
S'alf zips <alfzips@gmail.com>'
p7
sS'msg_inbox_outbox'
p8
S'outbox'
p9
sS'msg_id'
p10
V160cd07bcce4392c
p11
sS'msg_threadid'
p12
V160cae524f17eafa
p13
sS'msg_date'
p14
S'Sat, 6 Jan 2018 13:51:58 -0600'
p15
sS'msg_id_mime'
p16
S'<B49C06D0-B977-4AED-889C-0BD9A8DE8FF5@gmail.com>'
p17
sS'msg_text'
p18
S'\r'
sS'msg_reply_to_id_mime'
p19
S'<CAF34eQHwsiizc0W51_t22iXLJYgc7Xnho7-9vtXBx-UJmKSugA@mail.gmail.com>'
p20
sS'msg_label'
p21
(lp22
VIMPORTANT
p23
aVSENT
p24
asS'msg_cc'
p25
NsS'msg_bcc'
p26
Ns.