(dp1
S'msg_subject'
p2
S'RE: Re:'
p3
sS'msg_from'
p4
S'Clara Marquardt <marquardt.clara@gmail.com>'
p5
sS'msg_to'
p6
S'alf zips <alfzips@gmail.com>'
p7
sS'msg_inbox_outbox'
p8
S'outbox'
p9
sS'msg_id'
p10
V160ebfd25532411c
p11
sS'msg_threadid'
p12
V160e3c7330af3073
p13
sS'msg_date'
p14
S'Fri, 12 Jan 2018 14:07:36 -0600'
p15
sS'msg_id_mime'
p16
S'<5a5915cb.091a6b0a.6d82f.5b9b@mx.google.com>'
p17
sS'msg_text'
p18
S'Ich schmeise den rechner bald aus dem fenster du huhn. J*** gleich hinterher\nDANKE : ) Schaue so bald ich hier gehen kann\nSent from Mail for Windows 10\n'
p19
sS'msg_reply_to_id_mime'
p20
S' <CAF34eQE+rpB2yAt+XJf8Ueq0+oinuusTpoRZWMeXV4Qo51Hzfg@mail.gmail.com>'
p21
sS'msg_label'
p22
(lp23
VIMPORTANT
p24
aVSENT
p25
asS'msg_cc'
p26
NsS'msg_bcc'
p27
Ns.