(dp1
S'msg_subject'
p2
S'Re:'
p3
sS'msg_from'
p4
S'Clara Marquardt <marquardt.clara@gmail.com>'
p5
sS'msg_to'
p6
S'alf zips <alfzips@gmail.com>'
p7
sS'msg_inbox_outbox'
p8
S'outbox'
p9
sS'msg_id'
p10
V161882372660ccf5
p11
sS'msg_threadid'
p12
V161863f64ed577d3
p13
sS'msg_date'
p14
S'Sun, 11 Feb 2018 21:51:18 -0600'
p15
sS'msg_id_mime'
p16
S'<FFB8A979-187C-4C70-B3CB-39BB75FD7428@gmail.com>'
p17
sS'msg_text'
p18
S'DU HAST DICH NICHT GEMELDET DU HUHN : ( : ( : ( Huhn ist besorgt wegen allen - diese Woche viel zu tun fuer interview vorbeireiten \ndenk an dich\n'
p19
sS'msg_reply_to_id_mime'
p20
S'<CAF34eQFNWJKQ7Hhk8OswVp+9gF7V5R1D3hALT3V_VLeF=XKMXA@mail.gmail.com>'
p21
sS'msg_label'
p22
(lp23
VIMPORTANT
p24
aVSENT
p25
asS'msg_cc'
p26
NsS'msg_bcc'
p27
Ns.