(dp1
S'msg_subject'
p2
S'Re: Message from "PRDESTO002"'
p3
sS'msg_from'
p4
S'Clara Marquardt <marquardt.clara@gmail.com>'
p5
sS'msg_to'
p6
S'Zips Alf <AZips@baumer.com>'
p7
sS'msg_inbox_outbox'
p8
S'outbox'
p9
sS'msg_id'
p10
V160d64bcf0de7767
p11
sS'msg_threadid'
p12
V160d63e57c852c7c
p13
sS'msg_date'
p14
S'Mon, 8 Jan 2018 09:02:57 -0600'
p15
sS'msg_id_mime'
p16
S'<9EB72157-F9C9-4BCB-86AA-F13A604622D3@gmail.com>'
p17
sS'msg_text'
p18
S':) DANKE\r'
p19
sS'msg_reply_to_id_mime'
p20
S'<4F18C3B8473AA64F8830C8E125EBCD8801792EF2BA@srvchfra018.baumernet.org>'
p21
sS'msg_label'
p22
(lp23
VSENT
p24
asS'msg_cc'
p25
NsS'msg_bcc'
p26
Ns.