(dp1
S'msg_subject'
p2
S''
sS'msg_from'
p3
S'Clara Marquardt <marquardt.clara@gmail.com>'
p4
sS'msg_to'
p5
S'Ulla Marquardt <ulla.marquardt@yahoo.de>'
p6
sS'msg_inbox_outbox'
p7
S'outbox'
p8
sS'msg_id'
p9
V1604a52169044997
p10
sS'msg_threadid'
p11
V1604a52169044997
p12
sS'msg_date'
p13
S'Tue, 12 Dec 2017 04:42:45 -0600'
p14
sS'msg_id_mime'
p15
S'<9E48B885-07D0-4F9A-A5CE-CDF73E39172A@gmail.com>'
p16
sS'msg_text'
p17
S'Habe dir gerade das neue draft geschickt - Bild relevant sind die \xc3\x84nderungen der zwei letzten W\xc3\xb6rter (Bilder sind gleich ) - was meinst du dazu?\nFuer die Bilder ist es glaube ich gut wenn sie nicht perfekt aussehen - also so dass mann noch erkennt das es Abstraktionen vom Original Bild sind (nur im 2ten Bild mit dem schatten kann mann etwas mehr \xc3\xa4ndern denke ich) : )\nSachen bei denen ich mir nicht sicher bin/es toll w\xc3\xa4hre deine opinion zu kriegen: (a) Farben - all 4 W\xc3\xb6rter gleich oder verschieden? (b) position der W\xc3\xb6rter (c) hilfreich order zu gimmicky die W\xc3\xb6rter auch im text farblich zu betonen? \nAttached das original photo (PDF)\nhttps://www.chicagobooth.edu//-/media/programs/full-time/docs/201718finalessay.aspx <https://www.chicagobooth.edu//-/media/programs/full-time/docs/201718finalessay.aspx>\nGANZ VIELEN DANK TIGER : ) : )\n'
p18
sS'msg_reply_to_id_mime'
p19
Fnan
sS'msg_label'
p20
(lp21
VIMPORTANT
p22
aVSENT
p23
asS'msg_cc'
p24
NsS'msg_bcc'
p25
Ns.