(dp1
S'msg_subject'
p2
S'Re: Clara, Shreyas referred you for The Premier Rewards Gold Card'
p3
sS'msg_from'
p4
S'Clara Marquardt <marquardt.clara@gmail.com>'
p5
sS'msg_to'
p6
S'Shreyas <support-b2gxee7axk0dxraur9u58qq4h4xa1a@email.americanexpress.com>'
p7
sS'msg_inbox_outbox'
p8
S'outbox'
p9
sS'msg_id'
p10
V1609a6920b9bada4
p11
sS'msg_threadid'
p12
V1609a67399c38a1e
p13
sS'msg_date'
p14
S'Wed, 27 Dec 2017 17:57:47 -0600'
p15
sS'msg_id_mime'
p16
S'<A37C3CCB-E58A-4A32-8638-96D7A0B806EE@gmail.com>'
p17
sS'msg_text'
p18
S'They don\xe2\x80\x99t want me\r'
p19
sS'msg_reply_to_id_mime'
p20
S'<b2gxee7b0rvht7aur9u58qq4h4xam1@mta897.email.americanexpress.com>'
p21
sS'msg_label'
p22
(lp23
VSENT
p24
asS'msg_cc'
p25
NsS'msg_bcc'
p26
Ns.