(dp1
S'msg_subject'
p2
S'NYTimes: A.I. and Big Data Could Power a New War on Poverty'
p3
sS'msg_from'
p4
S'Clara Marquardt <marquardt.clara@gmail.com>'
p5
sS'msg_to'
p6
S'Clara Marquardt <marquardt.clara@gmail.com>'
p7
sS'msg_inbox_outbox'
p8
S'outbox'
p9
sS'msg_id'
p10
V160b5248a1380801
p11
sS'msg_threadid'
p12
V160b5248a1380801
p13
sS'msg_date'
p14
S'Mon, 1 Jan 2018 22:32:39 -0600'
p15
sS'msg_id_mime'
p16
S'<CAC77MjLsBdX3gt_sm=--8T2uxX934qrU2t98-dWwvR39V=3QVQ@mail.gmail.com>'
p17
sS'msg_text'
p18
S'A.I. and Big Data Could Power a New War on Poverty https://nyti.ms/2EtndUG\n'
p19
sS'msg_reply_to_id_mime'
p20
Fnan
sS'msg_label'
p21
(lp22
VIMPORTANT
p23
aVSTARRED
p24
aVSENT
p25
aVINBOX
p26
asS'msg_cc'
p27
NsS'msg_bcc'
p28
Ns.