(dp1
S'msg_subject'
p2
S'Re: Paper for discussion today'
p3
sS'msg_from'
p4
S'Clara Marquardt <marquardt.clara@gmail.com>'
p5
sS'msg_to'
p6
S'"Obermeyer, Ziad,M.D.,M.Phil." <ZOBERMEYER@BWH.HARVARD.EDU>'
p7
sS'msg_inbox_outbox'
p8
S'outbox'
p9
sS'msg_id'
p10
V15ffb05f8ea8b316
p11
sS'msg_threadid'
p12
V15ff057d3a40504d
p13
sS'msg_date'
p14
S'Mon, 27 Nov 2017 02:09:50 +0100'
p15
sS'msg_id_mime'
p16
S'<026D0359-96DC-4A39-9DE1-E7518372C3EB@gmail.com>'
p17
sS'msg_text'
p18
S'Hi Ziad, \nHope you had a great thanksgiving too! I am currently still hiding away in the German countryside to write these application essays but will be back Wednesday. \nI am speaking to Jens tomorrow so I should have a better sense of when I can get around to this. \nHave you by any chance been successful in fixing the remote desktop connection so that I can access the cluster?\nClara\n'
p19
sS'msg_reply_to_id_mime'
p20
S'<CY4PR04MB09040323190AB2300DDEFD238F260@CY4PR04MB0904.namprd04.prod.outlook.com>'
p21
sS'msg_label'
p22
(lp23
VIMPORTANT
p24
aVSENT
p25
asS'msg_cc'
p26
NsS'msg_bcc'
p27
Ns.