(dp1
S'msg_subject'
p2
S'RE: Re:'
p3
sS'msg_from'
p4
S'Clara Marquardt <marquardt.clara@gmail.com>'
p5
sS'msg_to'
p6
S'alf zips <alfzips@gmail.com>'
p7
sS'msg_inbox_outbox'
p8
S'outbox'
p9
sS'msg_id'
p10
V160235589122a6e4
p11
sS'msg_threadid'
p12
V160223e8e11df07a
p13
sS'msg_date'
p14
S'Mon, 4 Dec 2017 15:00:00 -0600'
p15
sS'msg_id_mime'
p16
S'<5a25b7b0.da826b0a.18270.7698@mx.google.com>'
p17
sS'msg_text'
p18
S': ) Lese es mir durch sobald zuhause. Hast du heute abend kurz zeit zu skypen (wann gehst du ins bett?)? Waere super zu wissen wie du es insgesamt fondest den essay \nSent from Mail for Windows 10\n'
p19
sS'msg_reply_to_id_mime'
p20
S' <CAF34eQGMKPggPrLwXmpASK4VD9HjYR=qsy8QGsQzU4jE1AY8Aw@mail.gmail.com>'
p21
sS'msg_label'
p22
(lp23
VIMPORTANT
p24
aVSENT
p25
asS'msg_cc'
p26
NsS'msg_bcc'
p27
Ns.