(dp1
S'msg_subject'
p2
S''
sS'msg_from'
p3
S'Clara Marquardt <marquardt.clara@gmail.com>'
p4
sS'msg_to'
p5
S'"marquardt.clara@gmail.com" <marquardt.clara@gmail.com>'
p6
sS'msg_inbox_outbox'
p7
S'outbox'
p8
sS'msg_id'
p9
V161528d03dbfa990
p10
sS'msg_threadid'
p11
V161528d03dbfa990
p12
sS'msg_date'
p13
S'Thu, 1 Feb 2018 12:06:16 -0600'
p14
sS'msg_id_mime'
p15
S'<5a73574c.4fc36b0a.ee885.059a@mx.google.com>'
p16
sS'msg_text'
p17
S'Challenge \xe2\x80\x93 knowingme \xe2\x80\x93 CTO vs. lead user research \xe2\x80\x93 feel like we are falling behind on this \nWeakness \xe2\x80\x93 flare out when need to flare in \xe2\x80\x93 fail to see regulate pressure\nSent from Mail for Windows 10\n'
p18
sS'msg_reply_to_id_mime'
p19
Fnan
sS'msg_label'
p20
(lp21
VIMPORTANT
p22
aVSENT
p23
aVINBOX
p24
asS'msg_cc'
p25
NsS'msg_bcc'
p26
Ns.