(dp1
S'msg_subject'
p2
S'Re: RA inquiry'
p3
sS'msg_from'
p4
S'Clara Marquardt <marquardt.clara@gmail.com>'
p5
sS'msg_to'
p6
S'"Unverzagt, Eric" <eunverz@fas.harvard.edu>'
p7
sS'msg_inbox_outbox'
p8
S'outbox'
p9
sS'msg_id'
p10
V160c47264b09fe89
p11
sS'msg_threadid'
p12
V160c2bad9dcd3700
p13
sS'msg_date'
p14
S'Thu, 4 Jan 2018 21:51:55 -0600'
p15
sS'msg_id_mime'
p16
S'<56500788-498B-4686-8FBA-1A6105C48CBB@gmail.com>'
p17
sS'msg_text'
p18
S'Thanks for forwarding! Will follow up. \nAlso - happy new year!\nClara\n'
p19
sS'msg_reply_to_id_mime'
p20
S'<SN4PR0701MB364802FA87D8FF6CE80CB24BE51F0@SN4PR0701MB3648.namprd07.prod.outlook.com>'
p21
sS'msg_label'
p22
(lp23
VSENT
p24
asS'msg_cc'
p25
NsS'msg_bcc'
p26
Ns.